

HI-TECH Software PIC LITE Macro Assembler V9.83 build 10920 
                                                                                               Tue Jul 12 02:53:02 2022

HI-TECH Software Omniscient Code Generator (Lite mode) build 10920
     1  0000                     opt subtitle "HI-TECH Software Omniscient Code Generator (Lite mode) build 10920"
     2                           
     3                           opt pagewidth 120
     4                           
     5                           	opt lm
     6                           
     7                           	processor	16F886
     8                           clrc	macro
     9                           	bcf	3,0
    10  0000                     	endm
    11                           clrz	macro
    12                           	bcf	3,2
    13  0000                     	endm
    14                           setc	macro
    15                           	bsf	3,0
    16  0000                     	endm
    17                           setz	macro
    18                           	bsf	3,2
    19  0000                     	endm
    20                           skipc	macro
    21                           	btfss	3,0
    22  0000                     	endm
    23                           skipz	macro
    24                           	btfss	3,2
    25  0000                     	endm
    26                           skipnc	macro
    27                           	btfsc	3,0
    28  0000                     	endm
    29                           skipnz	macro
    30                           	btfsc	3,2
    31  0000                     	endm
    32  0000                     indf	equ	0
    33  0000                     indf0	equ	0
    34  0002                     pc	equ	2
    35  0002                     pcl	equ	2
    36  0003                     status	equ	3
    37  0004                     fsr	equ	4
    38  0004                     fsr0	equ	4
    39  0001                     c	equ	1
    40  0000                     z	equ	0
    41  000A                     pclath	equ	10
    42                           # 9 "C:\OD\OneDrive\Pessoal\Projetos para o GitHub\LCD Gráfico\unit_test.c"
    43                           	psect config,class=CONFIG,delta=2 ;#
    44                           # 9 "C:\OD\OneDrive\Pessoal\Projetos para o GitHub\LCD Gráfico\unit_test.c"
    45  2007  EB22               	dw 0xFFFA & 0xFFF7 & 0xFFEF & 0xFFFF & 0xFFBF & 0xFF7F & 0xFFFF & 0xFBFF & 0xFFFF & 0xE
                                 FFF & 0xFFFF ;#
    46                           # 10 "C:\OD\OneDrive\Pessoal\Projetos para o GitHub\LCD Gráfico\unit_test.c"
    47                           	psect config,class=CONFIG,delta=2 ;#
    48                           # 10 "C:\OD\OneDrive\Pessoal\Projetos para o GitHub\LCD Gráfico\unit_test.c"
    49  2008  FEFF               	dw 0xFEFF & 0xFFFF ;#
    50                           	FNCALL	_main,_InicializarDisplay
    51                           	FNCALL	_main,_TamanhoFrase
    52                           	FNCALL	_main,_Centralizar
    53                           	FNCALL	_main,_EscreveFrase
    54                           	FNCALL	_main,_DesenharBitmap
    55                           	FNCALL	_main,_JustificarDireita
    56                           	FNCALL	_main,_delay
    57                           	FNCALL	_main,_InverterCores
    58                           	FNCALL	_EscreveFrase,_EscreveCaractere
    59                           	FNCALL	_DesenharBitmap,_Ponto
    60                           	FNCALL	_EscreveCaractere,___wmul
    61                           	FNCALL	_EscreveCaractere,_Ponto
    62                           	FNCALL	_InicializarDisplay,_RST
    63                           	FNCALL	_InicializarDisplay,_RW
    64                           	FNCALL	_InicializarDisplay,_delay
    65                           	FNCALL	_InicializarDisplay,_LigarDisplay
    66                           	FNCALL	_InicializarDisplay,_LimparDisplay
    67                           	FNCALL	_Ponto,_EnderecoX
    68                           	FNCALL	_Ponto,_EnderecoY
    69                           	FNCALL	_Ponto,_NovoX
    70                           	FNCALL	_Ponto,_EnviarDado
    71                           	FNCALL	_LimparDisplay,_EnderecoX
    72                           	FNCALL	_LimparDisplay,_EnviarDado
    73                           	FNCALL	_NovoX,_LerDado
    74                           	FNCALL	_InverterCores,_EnderecoX
    75                           	FNCALL	_InverterCores,_EnderecoY
    76                           	FNCALL	_InverterCores,_LerDado
    77                           	FNCALL	_InverterCores,_EnviarDado
    78                           	FNCALL	_LigarDisplay,_SelecionarArea
    79                           	FNCALL	_LigarDisplay,_RS
    80                           	FNCALL	_LigarDisplay,_Clock
    81                           	FNCALL	_EnviarDado,_SelecionarArea
    82                           	FNCALL	_EnviarDado,_RS
    83                           	FNCALL	_EnviarDado,_Clock
    84                           	FNCALL	_LerDado,_SelecionarArea
    85                           	FNCALL	_LerDado,_RS
    86                           	FNCALL	_LerDado,_ClockComLeitura
    87                           	FNCALL	_EnderecoY,_SelecionarArea
    88                           	FNCALL	_EnderecoY,_RS
    89                           	FNCALL	_EnderecoY,_Clock
    90                           	FNCALL	_EnderecoX,_SelecionarArea
    91                           	FNCALL	_EnderecoX,_RS
    92                           	FNCALL	_EnderecoX,_Clock
    93                           	FNCALL	_ClockComLeitura,_RW
    94                           	FNCALL	_ClockComLeitura,_E
    95                           	FNCALL	_ClockComLeitura,_delayMicroseconds
    96                           	FNCALL	_Clock,_E
    97                           	FNCALL	_Clock,_delayMicroseconds
    98                           	FNCALL	_JustificarDireita,___bmul
    99                           	FNCALL	_Centralizar,___wmul
   100                           	FNCALL	_SelecionarArea,_CS1
   101                           	FNCALL	_SelecionarArea,_CS2
   102                           	FNROOT	_main
   103                           	global	_alfabeto
   104                           psect	stringtext,class=STRCODE,delta=2,reloc=256
   105                           global __pstringtext
   106  1D00                     __pstringtext:
   107                           ;	global	stringtab,__stringbase
   108  1D00                     stringtab:
   109                           ;	String table - string pointers are 2 bytes each
   110  1D00  1BFF               	btfsc	(btemp+1),7
   111  1D01  2D0A               	ljmp	stringcode
   112  1D02  1383               	bcf	status,7
   113  1D03  187F               	btfsc	(btemp+1),0
   114  1D04  1783               	bsf	status,7
   115  1D05  0800               	movf	indf,w
   116  1D06  0A84               	incf fsr
   117  1D07  1903               skipnz
   118  1D08  0AFF               incf btemp+1
   119  1D09  0008               	return
   120  1D0A                     stringcode:
   121  1D0A  087F               	movf btemp+1,w
   122  1D0B  397F               andlw 7Fh
   123  1D0C  008A               movwf	pclath
   124  1D0D  0804               	movf	fsr,w
   125  1D0E  0A84               incf fsr
   126  1D0F  1903               skipnz
   127  1D10  0AFF               incf btemp+1
   128  1D11  0082               	movwf pc
   129  1D12                     __stringbase:
   130                           	file	"C:\OD\OneDrive\Pessoal\Projetos para o GitHub\LCD Gráfico\caracteres.h"
   131                           	line	9
   132  1D12                     _alfabeto:
   133  1D12  347E               	retlw	07Eh
   134  1D13  3488               	retlw	088h
   135  1D14  3488               	retlw	088h
   136  1D15  3488               	retlw	088h
   137  1D16  347E               	retlw	07Eh
   138  1D17  34FE               	retlw	0FEh
   139  1D18  3492               	retlw	092h
   140  1D19  3492               	retlw	092h
   141  1D1A  3492               	retlw	092h
   142  1D1B  346C               	retlw	06Ch
   143  1D1C  347C               	retlw	07Ch
   144  1D1D  3482               	retlw	082h
   145  1D1E  3482               	retlw	082h
   146  1D1F  3482               	retlw	082h
   147  1D20  3444               	retlw	044h
   148  1D21  34FE               	retlw	0FEh
   149  1D22  3482               	retlw	082h
   150  1D23  3482               	retlw	082h
   151  1D24  3444               	retlw	044h
   152  1D25  3438               	retlw	038h
   153  1D26  34FE               	retlw	0FEh
   154  1D27  3492               	retlw	092h
   155  1D28  3492               	retlw	092h
   156  1D29  3492               	retlw	092h
   157  1D2A  3482               	retlw	082h
   158  1D2B  34FE               	retlw	0FEh
   159  1D2C  3490               	retlw	090h
   160  1D2D  3490               	retlw	090h
   161  1D2E  3490               	retlw	090h
   162  1D2F  3480               	retlw	080h
   163  1D30  347C               	retlw	07Ch
   164  1D31  3482               	retlw	082h
   165  1D32  3492               	retlw	092h
   166  1D33  3492               	retlw	092h
   167  1D34  345E               	retlw	05Eh
   168  1D35  34FE               	retlw	0FEh
   169  1D36  3410               	retlw	010h
   170  1D37  3410               	retlw	010h
   171  1D38  3410               	retlw	010h
   172  1D39  34FE               	retlw	0FEh
   173  1D3A  3400               	retlw	0
   174  1D3B  3482               	retlw	082h
   175  1D3C  34FE               	retlw	0FEh
   176  1D3D  3482               	retlw	082h
   177  1D3E  3400               	retlw	0
   178  1D3F  3404               	retlw	04h
   179  1D40  3402               	retlw	02h
   180  1D41  3482               	retlw	082h
   181  1D42  34FC               	retlw	0FCh
   182  1D43  3480               	retlw	080h
   183  1D44  34FE               	retlw	0FEh
   184  1D45  3410               	retlw	010h
   185  1D46  3428               	retlw	028h
   186  1D47  3444               	retlw	044h
   187  1D48  3482               	retlw	082h
   188  1D49  34FE               	retlw	0FEh
   189  1D4A  3402               	retlw	02h
   190  1D4B  3402               	retlw	02h
   191  1D4C  3402               	retlw	02h
   192  1D4D  3402               	retlw	02h
   193  1D4E  34FE               	retlw	0FEh
   194  1D4F  3440               	retlw	040h
   195  1D50  3430               	retlw	030h
   196  1D51  3440               	retlw	040h
   197  1D52  34FE               	retlw	0FEh
   198  1D53  34FE               	retlw	0FEh
   199  1D54  3420               	retlw	020h
   200  1D55  3410               	retlw	010h
   201  1D56  3408               	retlw	08h
   202  1D57  34FE               	retlw	0FEh
   203  1D58  347C               	retlw	07Ch
   204  1D59  3482               	retlw	082h
   205  1D5A  3482               	retlw	082h
   206  1D5B  3482               	retlw	082h
   207  1D5C  347C               	retlw	07Ch
   208  1D5D  34FE               	retlw	0FEh
   209  1D5E  3490               	retlw	090h
   210  1D5F  3490               	retlw	090h
   211  1D60  3490               	retlw	090h
   212  1D61  3460               	retlw	060h
   213  1D62  347C               	retlw	07Ch
   214  1D63  3482               	retlw	082h
   215  1D64  348A               	retlw	08Ah
   216  1D65  3484               	retlw	084h
   217  1D66  347A               	retlw	07Ah
   218  1D67  34FE               	retlw	0FEh
   219  1D68  3490               	retlw	090h
   220  1D69  3498               	retlw	098h
   221  1D6A  3494               	retlw	094h
   222  1D6B  3462               	retlw	062h
   223  1D6C  3462               	retlw	062h
   224  1D6D  3492               	retlw	092h
   225  1D6E  3492               	retlw	092h
   226  1D6F  3492               	retlw	092h
   227  1D70  348C               	retlw	08Ch
   228  1D71  3480               	retlw	080h
   229  1D72  3480               	retlw	080h
   230  1D73  34FE               	retlw	0FEh
   231  1D74  3480               	retlw	080h
   232  1D75  3480               	retlw	080h
   233  1D76  34FC               	retlw	0FCh
   234  1D77  3402               	retlw	02h
   235  1D78  3402               	retlw	02h
   236  1D79  3402               	retlw	02h
   237  1D7A  34FC               	retlw	0FCh
   238  1D7B  34F8               	retlw	0F8h
   239  1D7C  3404               	retlw	04h
   240  1D7D  3402               	retlw	02h
   241  1D7E  3404               	retlw	04h
   242  1D7F  34F8               	retlw	0F8h
   243  1D80  34FC               	retlw	0FCh
   244  1D81  3402               	retlw	02h
   245  1D82  341C               	retlw	01Ch
   246  1D83  3402               	retlw	02h
   247  1D84  34FC               	retlw	0FCh
   248  1D85  34C6               	retlw	0C6h
   249  1D86  3428               	retlw	028h
   250  1D87  3410               	retlw	010h
   251  1D88  3428               	retlw	028h
   252  1D89  34C6               	retlw	0C6h
   253  1D8A  34E0               	retlw	0E0h
   254  1D8B  3410               	retlw	010h
   255  1D8C  340E               	retlw	0Eh
   256  1D8D  3410               	retlw	010h
   257  1D8E  34E0               	retlw	0E0h
   258  1D8F  3486               	retlw	086h
   259  1D90  348A               	retlw	08Ah
   260  1D91  3492               	retlw	092h
   261  1D92  34A2               	retlw	0A2h
   262  1D93  34C2               	retlw	0C2h
   263  1D94  3404               	retlw	04h
   264  1D95  342A               	retlw	02Ah
   265  1D96  342A               	retlw	02Ah
   266  1D97  342A               	retlw	02Ah
   267  1D98  341E               	retlw	01Eh
   268  1D99  34FE               	retlw	0FEh
   269  1D9A  3412               	retlw	012h
   270  1D9B  3422               	retlw	022h
   271  1D9C  3422               	retlw	022h
   272  1D9D  341C               	retlw	01Ch
   273  1D9E  341C               	retlw	01Ch
   274  1D9F  3422               	retlw	022h
   275  1DA0  3422               	retlw	022h
   276  1DA1  3422               	retlw	022h
   277  1DA2  3404               	retlw	04h
   278  1DA3  341C               	retlw	01Ch
   279  1DA4  3422               	retlw	022h
   280  1DA5  3422               	retlw	022h
   281  1DA6  3412               	retlw	012h
   282  1DA7  34FE               	retlw	0FEh
   283  1DA8  341C               	retlw	01Ch
   284  1DA9  342A               	retlw	02Ah
   285  1DAA  342A               	retlw	02Ah
   286  1DAB  342A               	retlw	02Ah
   287  1DAC  3418               	retlw	018h
   288  1DAD  3410               	retlw	010h
   289  1DAE  347E               	retlw	07Eh
   290  1DAF  3490               	retlw	090h
   291  1DB0  3480               	retlw	080h
   292  1DB1  3440               	retlw	040h
   293  1DB2  3430               	retlw	030h
   294  1DB3  344A               	retlw	04Ah
   295  1DB4  344A               	retlw	04Ah
   296  1DB5  344A               	retlw	04Ah
   297  1DB6  347C               	retlw	07Ch
   298  1DB7  34FE               	retlw	0FEh
   299  1DB8  3410               	retlw	010h
   300  1DB9  3420               	retlw	020h
   301  1DBA  3420               	retlw	020h
   302  1DBB  341E               	retlw	01Eh
   303  1DBC  3400               	retlw	0
   304  1DBD  3422               	retlw	022h
   305  1DBE  34BE               	retlw	0BEh
   306  1DBF  3402               	retlw	02h
   307  1DC0  3400               	retlw	0
   308  1DC1  3404               	retlw	04h
   309  1DC2  3402               	retlw	02h
   310  1DC3  3422               	retlw	022h
   311  1DC4  34BC               	retlw	0BCh
   312  1DC5  3400               	retlw	0
   313  1DC6  34FE               	retlw	0FEh
   314  1DC7  3408               	retlw	08h
   315  1DC8  3414               	retlw	014h
   316  1DC9  3422               	retlw	022h
   317  1DCA  3400               	retlw	0
   318  1DCB  3400               	retlw	0
   319  1DCC  3482               	retlw	082h
   320  1DCD  34FE               	retlw	0FEh
   321  1DCE  3402               	retlw	02h
   322  1DCF  3400               	retlw	0
   323  1DD0  343E               	retlw	03Eh
   324  1DD1  3420               	retlw	020h
   325  1DD2  3418               	retlw	018h
   326  1DD3  3420               	retlw	020h
   327  1DD4  341E               	retlw	01Eh
   328  1DD5  343E               	retlw	03Eh
   329  1DD6  3410               	retlw	010h
   330  1DD7  3420               	retlw	020h
   331  1DD8  3420               	retlw	020h
   332  1DD9  341E               	retlw	01Eh
   333  1DDA  341C               	retlw	01Ch
   334  1DDB  3422               	retlw	022h
   335  1DDC  3422               	retlw	022h
   336  1DDD  3422               	retlw	022h
   337  1DDE  341C               	retlw	01Ch
   338  1DDF  343E               	retlw	03Eh
   339  1DE0  3428               	retlw	028h
   340  1DE1  3428               	retlw	028h
   341  1DE2  3428               	retlw	028h
   342  1DE3  3410               	retlw	010h
   343  1DE4  3410               	retlw	010h
   344  1DE5  3428               	retlw	028h
   345  1DE6  3428               	retlw	028h
   346  1DE7  3418               	retlw	018h
   347  1DE8  343E               	retlw	03Eh
   348  1DE9  343E               	retlw	03Eh
   349  1DEA  3410               	retlw	010h
   350  1DEB  3420               	retlw	020h
   351  1DEC  3420               	retlw	020h
   352  1DED  3410               	retlw	010h
   353  1DEE  3412               	retlw	012h
   354  1DEF  342A               	retlw	02Ah
   355  1DF0  342A               	retlw	02Ah
   356  1DF1  342A               	retlw	02Ah
   357  1DF2  3404               	retlw	04h
   358  1DF3  3420               	retlw	020h
   359  1DF4  34FC               	retlw	0FCh
   360  1DF5  3422               	retlw	022h
   361  1DF6  3402               	retlw	02h
   362  1DF7  3404               	retlw	04h
   363  1DF8  343C               	retlw	03Ch
   364  1DF9  3402               	retlw	02h
   365  1DFA  3402               	retlw	02h
   366  1DFB  3404               	retlw	04h
   367  1DFC  343E               	retlw	03Eh
   368  1DFD  3438               	retlw	038h
   369  1DFE  3404               	retlw	04h
   370  1DFF  3402               	retlw	02h
   371  1E00  3404               	retlw	04h
   372  1E01  3438               	retlw	038h
   373  1E02  343C               	retlw	03Ch
   374  1E03  3402               	retlw	02h
   375  1E04  340C               	retlw	0Ch
   376  1E05  3402               	retlw	02h
   377  1E06  343C               	retlw	03Ch
   378  1E07  3422               	retlw	022h
   379  1E08  3414               	retlw	014h
   380  1E09  3408               	retlw	08h
   381  1E0A  3414               	retlw	014h
   382  1E0B  3422               	retlw	022h
   383  1E0C  3430               	retlw	030h
   384  1E0D  340A               	retlw	0Ah
   385  1E0E  340A               	retlw	0Ah
   386  1E0F  340A               	retlw	0Ah
   387  1E10  343C               	retlw	03Ch
   388  1E11  3422               	retlw	022h
   389  1E12  3426               	retlw	026h
   390  1E13  342A               	retlw	02Ah
   391  1E14  3432               	retlw	032h
   392  1E15  3422               	retlw	022h
   393  1E16  347C               	retlw	07Ch
   394  1E17  348A               	retlw	08Ah
   395  1E18  3492               	retlw	092h
   396  1E19  34A2               	retlw	0A2h
   397  1E1A  347C               	retlw	07Ch
   398  1E1B  3400               	retlw	0
   399  1E1C  3442               	retlw	042h
   400  1E1D  34FE               	retlw	0FEh
   401  1E1E  3402               	retlw	02h
   402  1E1F  3400               	retlw	0
   403  1E20  3442               	retlw	042h
   404  1E21  3486               	retlw	086h
   405  1E22  348A               	retlw	08Ah
   406  1E23  3492               	retlw	092h
   407  1E24  3462               	retlw	062h
   408  1E25  3484               	retlw	084h
   409  1E26  3482               	retlw	082h
   410  1E27  34A2               	retlw	0A2h
   411  1E28  34D2               	retlw	0D2h
   412  1E29  348C               	retlw	08Ch
   413  1E2A  3418               	retlw	018h
   414  1E2B  3428               	retlw	028h
   415  1E2C  3448               	retlw	048h
   416  1E2D  34FE               	retlw	0FEh
   417  1E2E  3408               	retlw	08h
   418  1E2F  34E4               	retlw	0E4h
   419  1E30  34A2               	retlw	0A2h
   420  1E31  34A2               	retlw	0A2h
   421  1E32  34A2               	retlw	0A2h
   422  1E33  349C               	retlw	09Ch
   423  1E34  343C               	retlw	03Ch
   424  1E35  3452               	retlw	052h
   425  1E36  3492               	retlw	092h
   426  1E37  3492               	retlw	092h
   427  1E38  340C               	retlw	0Ch
   428  1E39  3480               	retlw	080h
   429  1E3A  348E               	retlw	08Eh
   430  1E3B  3490               	retlw	090h
   431  1E3C  34A0               	retlw	0A0h
   432  1E3D  34C0               	retlw	0C0h
   433  1E3E  346C               	retlw	06Ch
   434  1E3F  3492               	retlw	092h
   435  1E40  3492               	retlw	092h
   436  1E41  3492               	retlw	092h
   437  1E42  346C               	retlw	06Ch
   438  1E43  3460               	retlw	060h
   439  1E44  3492               	retlw	092h
   440  1E45  3492               	retlw	092h
   441  1E46  3494               	retlw	094h
   442  1E47  3478               	retlw	078h
   443  1E48  3440               	retlw	040h
   444  1E49  3480               	retlw	080h
   445  1E4A  348A               	retlw	08Ah
   446  1E4B  3490               	retlw	090h
   447  1E4C  3460               	retlw	060h
   448  1E4D  3400               	retlw	0
   449  1E4E  3400               	retlw	0
   450  1E4F  34F2               	retlw	0F2h
   451  1E50  3400               	retlw	0
   452  1E51  3400               	retlw	0
   453  1E52  3400               	retlw	0
   454  1E53  3400               	retlw	0
   455  1E54  3402               	retlw	02h
   456  1E55  3400               	retlw	0
   457  1E56  3400               	retlw	0
   458  1E57  340A               	retlw	0Ah
   459  1E58  340C               	retlw	0Ch
   460  1E59  3400               	retlw	0
   461  1E5A  3400               	retlw	0
   462  1E5B  3400               	retlw	0
   463  1E5C  3400               	retlw	0
   464  1E5D  3400               	retlw	0
   465  1E5E  3424               	retlw	024h
   466  1E5F  3400               	retlw	0
   467  1E60  3400               	retlw	0
   468  1E61  3428               	retlw	028h
   469  1E62  34FE               	retlw	0FEh
   470  1E63  3428               	retlw	028h
   471  1E64  34FE               	retlw	0FEh
   472  1E65  3428               	retlw	028h
   473  1E66  3414               	retlw	014h
   474  1E67  3408               	retlw	08h
   475  1E68  343E               	retlw	03Eh
   476  1E69  3408               	retlw	08h
   477  1E6A  3414               	retlw	014h
   478  1E6B  3400               	retlw	0
   479  1E6C  3400               	retlw	0
   480  1E6D  3400               	retlw	0
   481  1E6E  3400               	retlw	0
   482  1E6F  3400               	retlw	0
   483  1E70  3402               	retlw	02h
   484  1E71  3402               	retlw	02h
   485  1E72  3402               	retlw	02h
   486  1E73  3402               	retlw	02h
   487  1E74  3402               	retlw	02h
   488  1E75  3404               	retlw	04h
   489  1E76  3408               	retlw	08h
   490  1E77  3410               	retlw	010h
   491  1E78  3420               	retlw	020h
   492  1E79  3440               	retlw	040h
   493  1E7A  34C4               	retlw	0C4h
   494  1E7B  34C8               	retlw	0C8h
   495  1E7C  3410               	retlw	010h
   496  1E7D  3426               	retlw	026h
   497  1E7E  3446               	retlw	046h
   498                           	global	_bitmap_computador
   499                           psect	stringtext
   500                           	file	"C:\OD\OneDrive\Pessoal\Projetos para o GitHub\LCD Gráfico\bitmap.h"
   501                           	line	6
   502  1E7F                     _bitmap_computador:
   503  1E7F  34FF               	retlw	0FFh
   504  1E80  34FF               	retlw	0FFh
   505  1E81  34FF               	retlw	0FFh
   506  1E82  34FF               	retlw	0FFh
   507  1E83  34F0               	retlw	0F0h
   508  1E84  3480               	retlw	080h
   509  1E85  3400               	retlw	0
   510  1E86  3400               	retlw	0
   511  1E87  3400               	retlw	0
   512  1E88  3410               	retlw	010h
   513  1E89  3481               	retlw	081h
   514  1E8A  3477               	retlw	077h
   515  1E8B  3425               	retlw	025h
   516  1E8C  34DC               	retlw	0DCh
   517  1E8D  3410               	retlw	010h
   518  1E8E  3483               	retlw	083h
   519  1E8F  3455               	retlw	055h
   520  1E90  346D               	retlw	06Dh
   521  1E91  3454               	retlw	054h
   522  1E92  3410               	retlw	010h
   523  1E93  3481               	retlw	081h
   524  1E94  3455               	retlw	055h
   525  1E95  3425               	retlw	025h
   526  1E96  3454               	retlw	054h
   527  1E97  3410               	retlw	010h
   528  1E98  3481               	retlw	081h
   529  1E99  3477               	retlw	077h
   530  1E9A  3425               	retlw	025h
   531  1E9B  34DC               	retlw	0DCh
   532  1E9C  3410               	retlw	010h
   533  1E9D  3480               	retlw	080h
   534  1E9E  3400               	retlw	0
   535  1E9F  3400               	retlw	0
   536  1EA0  3400               	retlw	0
   537  1EA1  3410               	retlw	010h
   538  1EA2  3480               	retlw	080h
   539  1EA3  3400               	retlw	0
   540  1EA4  3400               	retlw	0
   541  1EA5  3400               	retlw	0
   542  1EA6  3410               	retlw	010h
   543  1EA7  3480               	retlw	080h
   544  1EA8  3400               	retlw	0
   545  1EA9  3400               	retlw	0
   546  1EAA  3400               	retlw	0
   547  1EAB  3410               	retlw	010h
   548  1EAC  3480               	retlw	080h
   549  1EAD  3400               	retlw	0
   550  1EAE  3400               	retlw	0
   551  1EAF  3400               	retlw	0
   552  1EB0  3410               	retlw	010h
   553  1EB1  3480               	retlw	080h
   554  1EB2  3400               	retlw	0
   555  1EB3  3400               	retlw	0
   556  1EB4  3400               	retlw	0
   557  1EB5  3410               	retlw	010h
   558  1EB6  3481               	retlw	081h
   559  1EB7  3477               	retlw	077h
   560  1EB8  3472               	retlw	072h
   561  1EB9  345C               	retlw	05Ch
   562  1EBA  3410               	retlw	010h
   563  1EBB  3483               	retlw	083h
   564  1EBC  3455               	retlw	055h
   565  1EBD  3456               	retlw	056h
   566  1EBE  34D4               	retlw	0D4h
   567  1EBF  3410               	retlw	010h
   568  1EC0  3481               	retlw	081h
   569  1EC1  3455               	retlw	055h
   570  1EC2  3452               	retlw	052h
   571  1EC3  3454               	retlw	054h
   572  1EC4  3410               	retlw	010h
   573  1EC5  3481               	retlw	081h
   574  1EC6  3477               	retlw	077h
   575  1EC7  3472               	retlw	072h
   576  1EC8  345C               	retlw	05Ch
   577  1EC9  3410               	retlw	010h
   578  1ECA  3480               	retlw	080h
   579  1ECB  3400               	retlw	0
   580  1ECC  3400               	retlw	0
   581  1ECD  3400               	retlw	0
   582  1ECE  3410               	retlw	010h
   583  1ECF  3480               	retlw	080h
   584  1ED0  3400               	retlw	0
   585  1ED1  3400               	retlw	0
   586  1ED2  3400               	retlw	0
   587  1ED3  3410               	retlw	010h
   588  1ED4  3480               	retlw	080h
   589  1ED5  3400               	retlw	0
   590  1ED6  3400               	retlw	0
   591  1ED7  3400               	retlw	0
   592  1ED8  3410               	retlw	010h
   593  1ED9  3480               	retlw	080h
   594  1EDA  3400               	retlw	0
   595  1EDB  3400               	retlw	0
   596  1EDC  3400               	retlw	0
   597  1EDD  3410               	retlw	010h
   598  1EDE  34FF               	retlw	0FFh
   599  1EDF  34FF               	retlw	0FFh
   600  1EE0  34FF               	retlw	0FFh
   601  1EE1  34FF               	retlw	0FFh
   602  1EE2  34F0               	retlw	0F0h
   603  1EE3  3400               	retlw	0
   604  1EE4  3400               	retlw	0
   605  1EE5  34C0               	retlw	0C0h
   606  1EE6  3400               	retlw	0
   607  1EE7  3400               	retlw	0
   608  1EE8  3400               	retlw	0
   609  1EE9  3400               	retlw	0
   610  1EEA  34C0               	retlw	0C0h
   611  1EEB  3400               	retlw	0
   612  1EEC  3400               	retlw	0
   613  1EED  3400               	retlw	0
   614  1EEE  3401               	retlw	01h
   615  1EEF  34E0               	retlw	0E0h
   616  1EF0  3400               	retlw	0
   617  1EF1  3400               	retlw	0
   618  1EF2  3400               	retlw	0
   619  1EF3  3400               	retlw	0
   620  1EF4  3400               	retlw	0
   621  1EF5  3400               	retlw	0
   622  1EF6  3400               	retlw	0
   623  1EF7  3400               	retlw	0
   624  1EF8  3400               	retlw	0
   625  1EF9  3400               	retlw	0
   626  1EFA  3400               	retlw	0
   627  1EFB  3400               	retlw	0
   628  1EFC  3400               	retlw	0
   629  1EFD  3400               	retlw	0
   630  1EFE  3400               	retlw	0
   631  1EFF  3400               	retlw	0
   632  1F00  3400               	retlw	0
   633  1F01  3401               	retlw	01h
   634  1F02  34FF               	retlw	0FFh
   635  1F03  34FF               	retlw	0FFh
   636  1F04  34F0               	retlw	0F0h
   637  1F05  3400               	retlw	0
   638  1F06  3401               	retlw	01h
   639  1F07  3400               	retlw	0
   640  1F08  3400               	retlw	0
   641  1F09  3410               	retlw	010h
   642  1F0A  3400               	retlw	0
   643  1F0B  3401               	retlw	01h
   644  1F0C  3455               	retlw	055h
   645  1F0D  3455               	retlw	055h
   646  1F0E  3450               	retlw	050h
   647  1F0F  3400               	retlw	0
   648  1F10  3401               	retlw	01h
   649  1F11  3400               	retlw	0
   650  1F12  3400               	retlw	0
   651  1F13  3410               	retlw	010h
   652  1F14  3400               	retlw	0
   653  1F15  3401               	retlw	01h
   654  1F16  3400               	retlw	0
   655  1F17  3400               	retlw	0
   656  1F18  3410               	retlw	010h
   657  1F19  3400               	retlw	0
   658  1F1A  3401               	retlw	01h
   659  1F1B  3400               	retlw	0
   660  1F1C  3400               	retlw	0
   661  1F1D  3410               	retlw	010h
   662  1F1E  3400               	retlw	0
   663  1F1F  3401               	retlw	01h
   664  1F20  342A               	retlw	02Ah
   665  1F21  34AA               	retlw	0AAh
   666  1F22  3490               	retlw	090h
   667  1F23  3400               	retlw	0
   668  1F24  3401               	retlw	01h
   669  1F25  3400               	retlw	0
   670  1F26  3400               	retlw	0
   671  1F27  3410               	retlw	010h
   672  1F28  3400               	retlw	0
   673  1F29  3401               	retlw	01h
   674  1F2A  34FF               	retlw	0FFh
   675  1F2B  34FF               	retlw	0FFh
   676  1F2C  34F0               	retlw	0F0h
   677  1F2D  3400               	retlw	0
   678                           	global	_alfabeto
   679                           	global	_bitmap_computador
   680                           	global	_PORTA
   681  0005                     _PORTA	set	5
   682                           	global	_CARRY
   683  0018                     _CARRY	set	24
   684                           	global	_GIE
   685  005F                     _GIE	set	95
   686                           	global	_TRISA
   687  0085                     _TRISA	set	133
   688                           	global	_TRISB
   689  0086                     _TRISB	set	134
   690                           	global	_EEADR
   691  010D                     _EEADR	set	269
   692                           	global	_EEDATA
   693  010C                     _EEDATA	set	268
   694                           	global	_EECON1
   695  018C                     _EECON1	set	396
   696                           	global	_EECON2
   697  018D                     _EECON2	set	397
   698                           	global	_RD
   699  0C60                     _RD	set	3168
   700                           	global	_WR
   701  0C61                     _WR	set	3169
   702                           	global	_WREN
   703  0C62                     _WREN	set	3170
   704                           	global	_pinos_display
   705                           psect	nvBANK1,class=BANK1,space=1
   706                           global __pnvBANK1
   707  00A0                     __pnvBANK1:
   708  00A0                     _pinos_display:
   709  00A0                            ds      20
   710                           
   711                           	global	_PORTB
   712  0006                     _PORTB	set	6
   713                           	global	_PORTC
   714  0007                     _PORTC	set	7
   715                           	global	_TRISC
   716  0087                     _TRISC	set	135
   717                           psect	stringtext
   718                           	
   719  1F2E                     STR_1:	
   720  1F2E  3444               	retlw	68	;'D'
   721  1F2F  3472               	retlw	114	;'r'
   722  1F30  3469               	retlw	105	;'i'
   723  1F31  3476               	retlw	118	;'v'
   724  1F32  3465               	retlw	101	;'e'
   725  1F33  3472               	retlw	114	;'r'
   726  1F34  3420               	retlw	32	;' '
   727  1F35  344C               	retlw	76	;'L'
   728  1F36  3443               	retlw	67	;'C'
   729  1F37  3444               	retlw	68	;'D'
   730  1F38  3420               	retlw	32	;' '
   731  1F39  3467               	retlw	103	;'g'
   732  1F3A  3472               	retlw	114	;'r'
   733  1F3B  3461               	retlw	97	;'a'
   734  1F3C  3466               	retlw	102	;'f'
   735  1F3D  3469               	retlw	105	;'i'
   736  1F3E  3463               	retlw	99	;'c'
   737  1F3F  346F               	retlw	111	;'o'
   738  1F40  3400               	retlw	0
   739                           psect	stringtext
   740                           	
   741  1F41                     STR_3:	
   742  1F41  344C               	retlw	76	;'L'
   743  1F42  3465               	retlw	101	;'e'
   744  1F43  346F               	retlw	111	;'o'
   745  1F44  346E               	retlw	110	;'n'
   746  1F45  3461               	retlw	97	;'a'
   747  1F46  3472               	retlw	114	;'r'
   748  1F47  3464               	retlw	100	;'d'
   749  1F48  346F               	retlw	111	;'o'
   750  1F49  3420               	retlw	32	;' '
   751  1F4A  3446               	retlw	70	;'F'
   752  1F4B  3465               	retlw	101	;'e'
   753  1F4C  346C               	retlw	108	;'l'
   754  1F4D  347A               	retlw	122	;'z'
   755  1F4E  346D               	retlw	109	;'m'
   756  1F4F  3461               	retlw	97	;'a'
   757  1F50  346E               	retlw	110	;'n'
   758  1F51  346E               	retlw	110	;'n'
   759  1F52  3400               	retlw	0
   760                           psect	stringtext
   761                           	
   762  1F53                     STR_6:	
   763  1F53  3432               	retlw	50	;'2'
   764  1F54  3430               	retlw	48	;'0'
   765  1F55  3432               	retlw	50	;'2'
   766  1F56  3432               	retlw	50	;'2'
   767  1F57  342F               	retlw	47	;'/'
   768  1F58  3430               	retlw	48	;'0'
   769  1F59  3437               	retlw	55	;'7'
   770  1F5A  342F               	retlw	47	;'/'
   771  1F5B  3431               	retlw	49	;'1'
   772  1F5C  3432               	retlw	50	;'2'
   773  1F5D  3400               	retlw	0
   774                           psect	stringtext
   775                           	
   776  1F5E                     STR_5:	
   777  1F5E  3456               	retlw	86	;'V'
   778  1F5F  3431               	retlw	49	;'1'
   779  1F60  342E               	retlw	46	;'.'
   780  1F61  3430               	retlw	48	;'0'
   781  1F62  3400               	retlw	0
   782                           psect	stringtext
   783  1F2E                     STR_2	equ	STR_1+0
   784  1F41                     STR_4	equ	STR_3+0
   785  1F53                     STR_7	equ	STR_6+0
   786                           	file	"TesteUnitarioLCDGrafico.as"
   787                           	line	#
   788                           psect cinit,class=CODE,delta=2
   789                           global start_initialization
   790  0F3F                     start_initialization:
   791                           
   792                           psect cinit,class=CODE,delta=2
   793                           global end_of_initialization
   794                           
   795                           ;End of C runtime variable initialization code
   796                           
   797  0F3F                     end_of_initialization:
   798  0F3F  0183               clrf status
   799  0F40  120A  118A  2D73   ljmp _main	;jump to C main() function
   800                           psect	cstackCOMMON,class=COMMON,space=1
   801                           global __pcstackCOMMON
   802  0070                     __pcstackCOMMON:
   803                           	global	?_RST
   804  0070                     ?_RST:	; 0 bytes @ 0x0
   805                           	global	??_RST
   806  0070                     ??_RST:	; 0 bytes @ 0x0
   807                           	global	?_RW
   808  0070                     ?_RW:	; 0 bytes @ 0x0
   809                           	global	??_RW
   810  0070                     ??_RW:	; 0 bytes @ 0x0
   811                           	global	?_delay
   812  0070                     ?_delay:	; 0 bytes @ 0x0
   813                           	global	?_LigarDisplay
   814  0070                     ?_LigarDisplay:	; 0 bytes @ 0x0
   815                           	global	?_E
   816  0070                     ?_E:	; 0 bytes @ 0x0
   817                           	global	??_E
   818  0070                     ??_E:	; 0 bytes @ 0x0
   819                           	global	?_delayMicroseconds
   820  0070                     ?_delayMicroseconds:	; 0 bytes @ 0x0
   821                           	global	?_SelecionarArea
   822  0070                     ?_SelecionarArea:	; 0 bytes @ 0x0
   823                           	global	?_RS
   824  0070                     ?_RS:	; 0 bytes @ 0x0
   825                           	global	??_RS
   826  0070                     ??_RS:	; 0 bytes @ 0x0
   827                           	global	?_CS1
   828  0070                     ?_CS1:	; 0 bytes @ 0x0
   829                           	global	??_CS1
   830  0070                     ??_CS1:	; 0 bytes @ 0x0
   831                           	global	?_CS2
   832  0070                     ?_CS2:	; 0 bytes @ 0x0
   833                           	global	??_CS2
   834  0070                     ??_CS2:	; 0 bytes @ 0x0
   835                           	global	?_InverterCores
   836  0070                     ?_InverterCores:	; 0 bytes @ 0x0
   837                           	global	?_LimparDisplay
   838  0070                     ?_LimparDisplay:	; 0 bytes @ 0x0
   839                           	global	?_Clock
   840  0070                     ?_Clock:	; 0 bytes @ 0x0
   841                           	global	?_main
   842  0070                     ?_main:	; 0 bytes @ 0x0
   843                           	global	?_LerDado
   844  0070                     ?_LerDado:	; 1 bytes @ 0x0
   845                           	global	?_ClockComLeitura
   846  0070                     ?_ClockComLeitura:	; 1 bytes @ 0x0
   847                           	global	?_Centralizar
   848  0070                     ?_Centralizar:	; 1 bytes @ 0x0
   849                           	global	?_JustificarDireita
   850  0070                     ?_JustificarDireita:	; 1 bytes @ 0x0
   851                           	global	?_TamanhoFrase
   852  0070                     ?_TamanhoFrase:	; 1 bytes @ 0x0
   853                           	global	?___bmul
   854  0070                     ?___bmul:	; 1 bytes @ 0x0
   855                           	global	?___wmul
   856  0070                     ?___wmul:	; 2 bytes @ 0x0
   857                           	global	___bmul@multiplicand
   858  0070                     ___bmul@multiplicand:	; 1 bytes @ 0x0
   859                           	global	TamanhoFrase@frase
   860  0070                     TamanhoFrase@frase:	; 2 bytes @ 0x0
   861                           	global	___wmul@multiplier
   862  0070                     ___wmul@multiplier:	; 2 bytes @ 0x0
   863                           	global	delay@ms
   864  0070                     delay@ms:	; 4 bytes @ 0x0
   865                           	global	delayMicroseconds@us
   866  0070                     delayMicroseconds@us:	; 4 bytes @ 0x0
   867  0070                     	ds	1
   868                           	global	??___bmul
   869  0071                     ??___bmul:	; 0 bytes @ 0x1
   870  0071                     	ds	1
   871                           	global	??_TamanhoFrase
   872  0072                     ??_TamanhoFrase:	; 0 bytes @ 0x2
   873                           	global	E@e
   874  0072                     E@e:	; 1 bytes @ 0x2
   875                           	global	RW@rw
   876  0072                     RW@rw:	; 1 bytes @ 0x2
   877                           	global	RS@rs
   878  0072                     RS@rs:	; 1 bytes @ 0x2
   879                           	global	CS1@cs1
   880  0072                     CS1@cs1:	; 1 bytes @ 0x2
   881                           	global	CS2@cs2
   882  0072                     CS2@cs2:	; 1 bytes @ 0x2
   883                           	global	RST@rst
   884  0072                     RST@rst:	; 1 bytes @ 0x2
   885                           	global	___bmul@product
   886  0072                     ___bmul@product:	; 1 bytes @ 0x2
   887                           	global	___wmul@multiplicand
   888  0072                     ___wmul@multiplicand:	; 2 bytes @ 0x2
   889  0072                     	ds	1
   890                           	global	??_SelecionarArea
   891  0073                     ??_SelecionarArea:	; 0 bytes @ 0x3
   892                           	global	_SelecionarArea$204
   893  0073                     _SelecionarArea$204:	; 1 bytes @ 0x3
   894                           	global	TamanhoFrase@tamanho
   895  0073                     TamanhoFrase@tamanho:	; 1 bytes @ 0x3
   896                           	global	___bmul@multiplier
   897  0073                     ___bmul@multiplier:	; 1 bytes @ 0x3
   898  0073                     	ds	1
   899                           	global	??_delay
   900  0074                     ??_delay:	; 0 bytes @ 0x4
   901                           	global	??_delayMicroseconds
   902  0074                     ??_delayMicroseconds:	; 0 bytes @ 0x4
   903                           	global	??_JustificarDireita
   904  0074                     ??_JustificarDireita:	; 0 bytes @ 0x4
   905                           	global	??___wmul
   906  0074                     ??___wmul:	; 0 bytes @ 0x4
   907                           	global	SelecionarArea@area
   908  0074                     SelecionarArea@area:	; 1 bytes @ 0x4
   909                           	global	___wmul@product
   910  0074                     ___wmul@product:	; 2 bytes @ 0x4
   911                           	global	delayMicroseconds@t
   912  0074                     delayMicroseconds@t:	; 4 bytes @ 0x4
   913  0074                     	ds	1
   914                           	global	JustificarDireita@tamanho_frase
   915  0075                     JustificarDireita@tamanho_frase:	; 1 bytes @ 0x5
   916  0075                     	ds	1
   917                           	global	??_Centralizar
   918  0076                     ??_Centralizar:	; 0 bytes @ 0x6
   919                           	global	delay@t
   920  0076                     delay@t:	; 4 bytes @ 0x6
   921  0076                     	ds	2
   922                           	global	?_EnderecoX
   923  0078                     ?_EnderecoX:	; 0 bytes @ 0x8
   924                           	global	?_EnderecoY
   925  0078                     ?_EnderecoY:	; 0 bytes @ 0x8
   926                           	global	?_EnviarDado
   927  0078                     ?_EnviarDado:	; 0 bytes @ 0x8
   928                           	global	??_LigarDisplay
   929  0078                     ??_LigarDisplay:	; 0 bytes @ 0x8
   930                           	global	??_Clock
   931  0078                     ??_Clock:	; 0 bytes @ 0x8
   932                           	global	??_ClockComLeitura
   933  0078                     ??_ClockComLeitura:	; 0 bytes @ 0x8
   934                           	global	EnviarDado@area
   935  0078                     EnviarDado@area:	; 1 bytes @ 0x8
   936                           	global	EnderecoX@area
   937  0078                     EnderecoX@area:	; 1 bytes @ 0x8
   938                           	global	EnderecoY@area
   939  0078                     EnderecoY@area:	; 1 bytes @ 0x8
   940  0078                     	ds	1
   941                           	global	??_EnderecoX
   942  0079                     ??_EnderecoX:	; 0 bytes @ 0x9
   943                           	global	??_EnderecoY
   944  0079                     ??_EnderecoY:	; 0 bytes @ 0x9
   945                           	global	??_EnviarDado
   946  0079                     ??_EnviarDado:	; 0 bytes @ 0x9
   947                           	global	ClockComLeitura@leitura
   948  0079                     ClockComLeitura@leitura:	; 1 bytes @ 0x9
   949  0079                     	ds	1
   950                           	global	??_LerDado
   951  007A                     ??_LerDado:	; 0 bytes @ 0xA
   952                           	global	EnviarDado@dado
   953  007A                     EnviarDado@dado:	; 1 bytes @ 0xA
   954                           	global	EnderecoX@x
   955  007A                     EnderecoX@x:	; 1 bytes @ 0xA
   956                           	global	EnderecoY@y
   957  007A                     EnderecoY@y:	; 1 bytes @ 0xA
   958  007A                     	ds	1
   959                           	global	??_LimparDisplay
   960  007B                     ??_LimparDisplay:	; 0 bytes @ 0xB
   961                           	global	LerDado@area
   962  007B                     LerDado@area:	; 1 bytes @ 0xB
   963  007B                     	ds	1
   964                           	global	LimparDisplay@y
   965  007C                     LimparDisplay@y:	; 1 bytes @ 0xC
   966                           	global	LerDado@leitura
   967  007C                     LerDado@leitura:	; 1 bytes @ 0xC
   968                           	global	Centralizar@tamanho_frase
   969  007C                     Centralizar@tamanho_frase:	; 1 bytes @ 0xC
   970  007C                     	ds	1
   971                           	global	??_InverterCores
   972  007D                     ??_InverterCores:	; 0 bytes @ 0xD
   973                           	global	LimparDisplay@x
   974  007D                     LimparDisplay@x:	; 1 bytes @ 0xD
   975  007D                     	ds	1
   976                           psect	cstackBANK0,class=BANK0,space=1
   977                           global __pcstackBANK0
   978  0020                     __pcstackBANK0:
   979                           	global	?_InicializarDisplay
   980  0020                     ?_InicializarDisplay:	; 0 bytes @ 0x0
   981                           	global	?_NovoX
   982  0020                     ?_NovoX:	; 1 bytes @ 0x0
   983                           	global	InverterCores@leitura
   984  0020                     InverterCores@leitura:	; 1 bytes @ 0x0
   985                           	global	NovoX@area
   986  0020                     NovoX@area:	; 1 bytes @ 0x0
   987                           	global	InicializarDisplay@pinos
   988  0020                     InicializarDisplay@pinos:	; 20 bytes @ 0x0
   989  0020                     	ds	1
   990                           	global	InverterCores@x
   991  0021                     InverterCores@x:	; 1 bytes @ 0x1
   992                           	global	NovoX@cor
   993  0021                     NovoX@cor:	; 1 bytes @ 0x1
   994  0021                     	ds	1
   995                           	global	??_NovoX
   996  0022                     ??_NovoX:	; 0 bytes @ 0x2
   997                           	global	InverterCores@y
   998  0022                     InverterCores@y:	; 1 bytes @ 0x2
   999  0022                     	ds	1
  1000                           	global	InverterCores@area
  1001  0023                     InverterCores@area:	; 1 bytes @ 0x3
  1002  0023                     	ds	3
  1003                           	global	_NovoX$157
  1004  0026                     _NovoX$157:	; 2 bytes @ 0x6
  1005  0026                     	ds	2
  1006                           	global	NovoX@x
  1007  0028                     NovoX@x:	; 1 bytes @ 0x8
  1008  0028                     	ds	1
  1009                           	global	NovoX@leitura
  1010  0029                     NovoX@leitura:	; 1 bytes @ 0x9
  1011  0029                     	ds	1
  1012                           	global	?_Ponto
  1013  002A                     ?_Ponto:	; 0 bytes @ 0xA
  1014                           	global	Ponto@y
  1015  002A                     Ponto@y:	; 1 bytes @ 0xA
  1016  002A                     	ds	1
  1017                           	global	Ponto@cor
  1018  002B                     Ponto@cor:	; 1 bytes @ 0xB
  1019  002B                     	ds	1
  1020                           	global	??_Ponto
  1021  002C                     ??_Ponto:	; 0 bytes @ 0xC
  1022  002C                     	ds	3
  1023                           	global	Ponto@pagina
  1024  002F                     Ponto@pagina:	; 1 bytes @ 0xF
  1025  002F                     	ds	1
  1026                           	global	Ponto@x
  1027  0030                     Ponto@x:	; 1 bytes @ 0x10
  1028  0030                     	ds	1
  1029                           	global	Ponto@area
  1030  0031                     Ponto@area:	; 1 bytes @ 0x11
  1031  0031                     	ds	1
  1032                           	global	?_EscreveCaractere
  1033  0032                     ?_EscreveCaractere:	; 0 bytes @ 0x12
  1034                           	global	?_DesenharBitmap
  1035  0032                     ?_DesenharBitmap:	; 0 bytes @ 0x12
  1036                           	global	EscreveCaractere@x
  1037  0032                     EscreveCaractere@x:	; 1 bytes @ 0x12
  1038                           	global	DesenharBitmap@bitmap
  1039  0032                     DesenharBitmap@bitmap:	; 2 bytes @ 0x12
  1040  0032                     	ds	1
  1041                           	global	EscreveCaractere@y
  1042  0033                     EscreveCaractere@y:	; 1 bytes @ 0x13
  1043  0033                     	ds	1
  1044                           	global	??_InicializarDisplay
  1045  0034                     ??_InicializarDisplay:	; 0 bytes @ 0x14
  1046                           	global	EscreveCaractere@cor
  1047  0034                     EscreveCaractere@cor:	; 1 bytes @ 0x14
  1048                           	global	DesenharBitmap@x
  1049  0034                     DesenharBitmap@x:	; 1 bytes @ 0x14
  1050  0034                     	ds	1
  1051                           	global	??_EscreveCaractere
  1052  0035                     ??_EscreveCaractere:	; 0 bytes @ 0x15
  1053                           	global	DesenharBitmap@y
  1054  0035                     DesenharBitmap@y:	; 1 bytes @ 0x15
  1055  0035                     	ds	1
  1056                           	global	DesenharBitmap@cor
  1057  0036                     DesenharBitmap@cor:	; 1 bytes @ 0x16
  1058  0036                     	ds	1
  1059                           	global	DesenharBitmap@altura_px
  1060  0037                     DesenharBitmap@altura_px:	; 1 bytes @ 0x17
  1061                           	global	_EscreveCaractere$282
  1062  0037                     _EscreveCaractere$282:	; 2 bytes @ 0x17
  1063  0037                     	ds	1
  1064                           	global	DesenharBitmap@largura_bytes
  1065  0038                     DesenharBitmap@largura_bytes:	; 1 bytes @ 0x18
  1066  0038                     	ds	1
  1067                           	global	??_DesenharBitmap
  1068  0039                     ??_DesenharBitmap:	; 0 bytes @ 0x19
  1069                           	global	EscreveCaractere@ponto
  1070  0039                     EscreveCaractere@ponto:	; 1 bytes @ 0x19
  1071  0039                     	ds	1
  1072                           	global	EscreveCaractere@mascara
  1073  003A                     EscreveCaractere@mascara:	; 1 bytes @ 0x1A
  1074  003A                     	ds	1
  1075                           	global	EscreveCaractere@x_aux
  1076  003B                     EscreveCaractere@x_aux:	; 1 bytes @ 0x1B
  1077                           	global	_DesenharBitmap$3225
  1078  003B                     _DesenharBitmap$3225:	; 2 bytes @ 0x1B
  1079  003B                     	ds	1
  1080                           	global	EscreveCaractere@y_aux
  1081  003C                     EscreveCaractere@y_aux:	; 1 bytes @ 0x1C
  1082  003C                     	ds	1
  1083                           	global	DesenharBitmap@altura
  1084  003D                     DesenharBitmap@altura:	; 1 bytes @ 0x1D
  1085                           	global	EscreveCaractere@end_alfa
  1086  003D                     EscreveCaractere@end_alfa:	; 2 bytes @ 0x1D
  1087  003D                     	ds	1
  1088                           	global	DesenharBitmap@largura
  1089  003E                     DesenharBitmap@largura:	; 1 bytes @ 0x1E
  1090  003E                     	ds	1
  1091                           	global	EscreveCaractere@caractere
  1092  003F                     EscreveCaractere@caractere:	; 1 bytes @ 0x1F
  1093                           	global	DesenharBitmap@novoY
  1094  003F                     DesenharBitmap@novoY:	; 1 bytes @ 0x1F
  1095  003F                     	ds	1
  1096                           	global	?_EscreveFrase
  1097  0040                     ?_EscreveFrase:	; 0 bytes @ 0x20
  1098                           	global	DesenharBitmap@ponto
  1099  0040                     DesenharBitmap@ponto:	; 1 bytes @ 0x20
  1100                           	global	EscreveFrase@frase
  1101  0040                     EscreveFrase@frase:	; 2 bytes @ 0x20
  1102  0040                     	ds	1
  1103                           	global	DesenharBitmap@mascara
  1104  0041                     DesenharBitmap@mascara:	; 1 bytes @ 0x21
  1105  0041                     	ds	1
  1106                           	global	EscreveFrase@x
  1107  0042                     EscreveFrase@x:	; 1 bytes @ 0x22
  1108                           	global	DesenharBitmap@bits
  1109  0042                     DesenharBitmap@bits:	; 1 bytes @ 0x22
  1110  0042                     	ds	1
  1111                           	global	EscreveFrase@y
  1112  0043                     EscreveFrase@y:	; 1 bytes @ 0x23
  1113  0043                     	ds	1
  1114                           	global	EscreveFrase@cor
  1115  0044                     EscreveFrase@cor:	; 1 bytes @ 0x24
  1116  0044                     	ds	1
  1117                           	global	??_EscreveFrase
  1118  0045                     ??_EscreveFrase:	; 0 bytes @ 0x25
  1119  0045                     	ds	3
  1120                           	global	??_main
  1121  0048                     ??_main:	; 0 bytes @ 0x28
  1122  0048                     	ds	4
  1123                           	global	main@latchb
  1124  004C                     main@latchb:	; 1 bytes @ 0x2C
  1125  004C                     	ds	1
  1126                           	global	main@pinos
  1127  004D                     main@pinos:	; 20 bytes @ 0x2D
  1128  004D                     	ds	20
  1129 ;;Data sizes: Strings 53, constant 540, data 0, bss 0, persistent 20 stack 0
  1130 ;;Auto spaces:   Size  Autos    Used
  1131 ;; COMMON          14     14      14
  1132 ;; BANK0           80     65      65
  1133 ;; BANK1           80      0      20
  1134 ;; BANK3           96      0       0
  1135 ;; BANK2           96      0       0
  1136                           
  1137 ;;
  1138 ;; Pointer list with targets:
  1139                           
  1140 ;; ?___wmul	unsigned int  size(1) Largest target is 0
  1141 ;;
  1142 ;; DesenharBitmap@bitmap	PTR const unsigned char  size(2) Largest target is 175
  1143 ;;		 -> bitmap_computador(CODE[175]), 
  1144 ;;
  1145 ;; pinos.latchDADOS.tris	PTR volatile unsigned char  size(1) Largest target is 1
  1146 ;;		 -> TRISC(BITSFR1[1]), 
  1147 ;;
  1148 ;; pinos.latchDADOS.latch	PTR volatile unsigned char  size(1) Largest target is 1
  1149 ;;		 -> PORTC(BITSFR0[1]), 
  1150 ;;
  1151 ;; pinos.pinoRST.latch_pino	PTR volatile unsigned char  size(1) Largest target is 1
  1152 ;;		 -> main@latchb(BANK0[1]), 
  1153 ;;
  1154 ;; pinos.pinoRST.porta_pino	PTR volatile unsigned char  size(1) Largest target is 1
  1155 ;;		 -> PORTB(BITSFR0[1]), 
  1156 ;;
  1157 ;; pinos.pinoCS2.latch_pino	PTR volatile unsigned char  size(1) Largest target is 1
  1158 ;;		 -> main@latchb(BANK0[1]), 
  1159 ;;
  1160 ;; pinos.pinoCS2.porta_pino	PTR volatile unsigned char  size(1) Largest target is 1
  1161 ;;		 -> PORTB(BITSFR0[1]), 
  1162 ;;
  1163 ;; pinos.pinoCS1.latch_pino	PTR volatile unsigned char  size(1) Largest target is 1
  1164 ;;		 -> main@latchb(BANK0[1]), 
  1165 ;;
  1166 ;; pinos.pinoCS1.porta_pino	PTR volatile unsigned char  size(1) Largest target is 1
  1167 ;;		 -> PORTB(BITSFR0[1]), 
  1168 ;;
  1169 ;; pinos.pinoRS.latch_pino	PTR volatile unsigned char  size(1) Largest target is 1
  1170 ;;		 -> main@latchb(BANK0[1]), 
  1171 ;;
  1172 ;; pinos.pinoRS.porta_pino	PTR volatile unsigned char  size(1) Largest target is 1
  1173 ;;		 -> PORTB(BITSFR0[1]), 
  1174 ;;
  1175 ;; pinos.pinoRW.latch_pino	PTR volatile unsigned char  size(1) Largest target is 1
  1176 ;;		 -> main@latchb(BANK0[1]), 
  1177 ;;
  1178 ;; pinos.pinoRW.porta_pino	PTR volatile unsigned char  size(1) Largest target is 1
  1179 ;;		 -> PORTB(BITSFR0[1]), 
  1180 ;;
  1181 ;; pinos.pinoE.latch_pino	PTR volatile unsigned char  size(1) Largest target is 1
  1182 ;;		 -> main@latchb(BANK0[1]), 
  1183 ;;
  1184 ;; pinos.pinoE.porta_pino	PTR volatile unsigned char  size(1) Largest target is 1
  1185 ;;		 -> PORTB(BITSFR0[1]), 
  1186 ;;
  1187 ;; EscreveFrase@frase	PTR const unsigned char  size(2) Largest target is 19
  1188 ;;		 -> STR_6(CODE[11]), STR_5(CODE[5]), STR_3(CODE[18]), STR_1(CODE[19]), 
  1189 ;;
  1190 ;; TamanhoFrase@frase	PTR const unsigned char  size(2) Largest target is 19
  1191 ;;		 -> STR_7(CODE[11]), STR_4(CODE[18]), STR_2(CODE[19]), 
  1192 ;;
  1193 ;; pinos.latchDADOS.tris	PTR volatile unsigned char  size(1) Largest target is 1
  1194 ;;		 -> TRISC(BITSFR1[1]), 
  1195 ;;
  1196 ;; pinos.latchDADOS.latch	PTR volatile unsigned char  size(1) Largest target is 1
  1197 ;;		 -> PORTC(BITSFR0[1]), 
  1198 ;;
  1199 ;; pinos.pinoRST.latch_pino	PTR volatile unsigned char  size(1) Largest target is 1
  1200 ;;		 -> main@latchb(BANK0[1]), 
  1201 ;;
  1202 ;; pinos.pinoRST.porta_pino	PTR volatile unsigned char  size(1) Largest target is 1
  1203 ;;		 -> PORTB(BITSFR0[1]), 
  1204 ;;
  1205 ;; pinos.pinoCS2.latch_pino	PTR volatile unsigned char  size(1) Largest target is 1
  1206 ;;		 -> main@latchb(BANK0[1]), 
  1207 ;;
  1208 ;; pinos.pinoCS2.porta_pino	PTR volatile unsigned char  size(1) Largest target is 1
  1209 ;;		 -> PORTB(BITSFR0[1]), 
  1210 ;;
  1211 ;; pinos.pinoCS1.latch_pino	PTR volatile unsigned char  size(1) Largest target is 1
  1212 ;;		 -> main@latchb(BANK0[1]), 
  1213 ;;
  1214 ;; pinos.pinoCS1.porta_pino	PTR volatile unsigned char  size(1) Largest target is 1
  1215 ;;		 -> PORTB(BITSFR0[1]), 
  1216 ;;
  1217 ;; pinos.pinoRS.latch_pino	PTR volatile unsigned char  size(1) Largest target is 1
  1218 ;;		 -> main@latchb(BANK0[1]), 
  1219 ;;
  1220 ;; pinos.pinoRS.porta_pino	PTR volatile unsigned char  size(1) Largest target is 1
  1221 ;;		 -> PORTB(BITSFR0[1]), 
  1222 ;;
  1223 ;; pinos.pinoRW.latch_pino	PTR volatile unsigned char  size(1) Largest target is 1
  1224 ;;		 -> main@latchb(BANK0[1]), 
  1225 ;;
  1226 ;; pinos.pinoRW.porta_pino	PTR volatile unsigned char  size(1) Largest target is 1
  1227 ;;		 -> PORTB(BITSFR0[1]), 
  1228 ;;
  1229 ;; pinos.pinoE.latch_pino	PTR volatile unsigned char  size(1) Largest target is 1
  1230 ;;		 -> main@latchb(BANK0[1]), 
  1231 ;;
  1232 ;; pinos.pinoE.porta_pino	PTR volatile unsigned char  size(1) Largest target is 1
  1233 ;;		 -> PORTB(BITSFR0[1]), 
  1234 ;;
  1235 ;; S23$tris	PTR volatile unsigned char  size(1) Largest target is 1
  1236 ;;		 -> TRISC(BITSFR1[1]), 
  1237 ;;
  1238 ;; pinos_display.latchDADOS.tris	PTR volatile unsigned char  size(1) Largest target is 1
  1239 ;;		 -> TRISC(BITSFR1[1]), 
  1240 ;;
  1241 ;; S23$latch	PTR volatile unsigned char  size(1) Largest target is 1
  1242 ;;		 -> PORTC(BITSFR0[1]), 
  1243 ;;
  1244 ;; pinos_display.latchDADOS.latch	PTR volatile unsigned char  size(1) Largest target is 1
  1245 ;;		 -> PORTC(BITSFR0[1]), 
  1246 ;;
  1247 ;; pinos_display.pinoRST.latch_pino	PTR volatile unsigned char  size(1) Largest target is 1
  1248 ;;		 -> main@latchb(BANK0[1]), 
  1249 ;;
  1250 ;; pinos_display.pinoRST.porta_pino	PTR volatile unsigned char  size(1) Largest target is 1
  1251 ;;		 -> PORTB(BITSFR0[1]), 
  1252 ;;
  1253 ;; pinos_display.pinoCS2.latch_pino	PTR volatile unsigned char  size(1) Largest target is 1
  1254 ;;		 -> main@latchb(BANK0[1]), 
  1255 ;;
  1256 ;; pinos_display.pinoCS2.porta_pino	PTR volatile unsigned char  size(1) Largest target is 1
  1257 ;;		 -> PORTB(BITSFR0[1]), 
  1258 ;;
  1259 ;; pinos_display.pinoCS1.latch_pino	PTR volatile unsigned char  size(1) Largest target is 1
  1260 ;;		 -> main@latchb(BANK0[1]), 
  1261 ;;
  1262 ;; pinos_display.pinoCS1.porta_pino	PTR volatile unsigned char  size(1) Largest target is 1
  1263 ;;		 -> PORTB(BITSFR0[1]), 
  1264 ;;
  1265 ;; pinos_display.pinoRS.latch_pino	PTR volatile unsigned char  size(1) Largest target is 1
  1266 ;;		 -> main@latchb(BANK0[1]), 
  1267 ;;
  1268 ;; pinos_display.pinoRS.porta_pino	PTR volatile unsigned char  size(1) Largest target is 1
  1269 ;;		 -> PORTB(BITSFR0[1]), 
  1270 ;;
  1271 ;; pinos_display.pinoRW.latch_pino	PTR volatile unsigned char  size(1) Largest target is 1
  1272 ;;		 -> main@latchb(BANK0[1]), 
  1273 ;;
  1274 ;; pinos_display.pinoRW.porta_pino	PTR volatile unsigned char  size(1) Largest target is 1
  1275 ;;		 -> PORTB(BITSFR0[1]), 
  1276 ;;
  1277 ;; S19$latch_pino	PTR volatile unsigned char  size(1) Largest target is 1
  1278 ;;		 -> main@latchb(BANK0[1]), 
  1279 ;;
  1280 ;; pinos_display.pinoE.latch_pino	PTR volatile unsigned char  size(1) Largest target is 1
  1281 ;;		 -> main@latchb(BANK0[1]), 
  1282 ;;
  1283 ;; S19$porta_pino	PTR volatile unsigned char  size(1) Largest target is 1
  1284 ;;		 -> PORTB(BITSFR0[1]), 
  1285 ;;
  1286 ;; pinos_display.pinoE.porta_pino	PTR volatile unsigned char  size(1) Largest target is 1
  1287 ;;		 -> PORTB(BITSFR0[1]), 
  1288 ;;
  1289                           
  1290                           
  1291 ;;
  1292 ;; Critical Paths under _main in COMMON
  1293 ;;
  1294 ;;   _main->_InverterCores
  1295 ;;   _EscreveFrase->_Centralizar
  1296 ;;   _InicializarDisplay->_LimparDisplay
  1297 ;;   _LimparDisplay->_EnderecoX
  1298 ;;   _LimparDisplay->_EnviarDado
  1299 ;;   _NovoX->_LerDado
  1300 ;;   _InverterCores->_LerDado
  1301 ;;   _LerDado->_ClockComLeitura
  1302 ;;   _ClockComLeitura->_delayMicroseconds
  1303 ;;   _Clock->_delayMicroseconds
  1304 ;;   _JustificarDireita->___bmul
  1305 ;;   _Centralizar->___wmul
  1306 ;;   _SelecionarArea->_CS1
  1307 ;;   _SelecionarArea->_CS2
  1308 ;;
  1309 ;; Critical Paths under _main in BANK0
  1310 ;;
  1311 ;;   _main->_EscreveFrase
  1312 ;;   _EscreveFrase->_EscreveCaractere
  1313 ;;   _DesenharBitmap->_Ponto
  1314 ;;   _EscreveCaractere->_Ponto
  1315 ;;   _Ponto->_NovoX
  1316 ;;
  1317 ;; Critical Paths under _main in BANK1
  1318 ;;
  1319 ;;   None.
  1320 ;;
  1321 ;; Critical Paths under _main in BANK3
  1322 ;;
  1323 ;;   None.
  1324 ;;
  1325 ;; Critical Paths under _main in BANK2
  1326 ;;
  1327 ;;   None.
  1328                           
  1329 ;;
  1330 ;;Main: autosize = 0, tempsize = 4, incstack = 0, save=0
  1331 ;;
  1332                           
  1333 ;;
  1334 ;;Call Graph Tables:
  1335 ;;
  1336 ;; ---------------------------------------------------------------------------------
  1337 ;; (Depth) Function   	        Calls       Base Space   Used Autos Params    Refs
  1338 ;; ---------------------------------------------------------------------------------
  1339 ;; (0) _main                                                25    25      0    8501
  1340 ;;                                             40 BANK0     25    25      0
  1341 ;;                 _InicializarDisplay
  1342 ;;                       _TamanhoFrase
  1343 ;;                        _Centralizar
  1344 ;;                       _EscreveFrase
  1345 ;;                     _DesenharBitmap
  1346 ;;                  _JustificarDireita
  1347 ;;                              _delay
  1348 ;;                      _InverterCores
  1349 ;; ---------------------------------------------------------------------------------
  1350 ;; (1) _EscreveFrase                                         8     3      5    2595
  1351 ;;                                             32 BANK0      8     3      5
  1352 ;;                   _EscreveCaractere
  1353 ;;                        _Centralizar (ARG)
  1354 ;;                       _TamanhoFrase (ARG)
  1355 ;;                  _JustificarDireita (ARG)
  1356 ;; ---------------------------------------------------------------------------------
  1357 ;; (1) _DesenharBitmap                                      17    10      7    2184
  1358 ;;                                             18 BANK0     17    10      7
  1359 ;;                              _Ponto
  1360 ;; ---------------------------------------------------------------------------------
  1361 ;; (2) _EscreveCaractere                                    14    11      3    2483
  1362 ;;                                             18 BANK0     14    11      3
  1363 ;;                             ___wmul
  1364 ;;                              _Ponto
  1365 ;; ---------------------------------------------------------------------------------
  1366 ;; (1) _InicializarDisplay                                  24     4     20    1124
  1367 ;;                                              0 BANK0     24     4     20
  1368 ;;                                _RST
  1369 ;;                                 _RW
  1370 ;;                              _delay
  1371 ;;                       _LigarDisplay
  1372 ;;                      _LimparDisplay
  1373 ;; ---------------------------------------------------------------------------------
  1374 ;; (2) _Ponto                                                8     6      2    1817
  1375 ;;                                             10 BANK0      8     6      2
  1376 ;;                          _EnderecoX
  1377 ;;                          _EnderecoY
  1378 ;;                              _NovoX
  1379 ;;                         _EnviarDado
  1380 ;; ---------------------------------------------------------------------------------
  1381 ;; (2) _LimparDisplay                                        3     3      0     742
  1382 ;;                                             11 COMMON     3     3      0
  1383 ;;                          _EnderecoX
  1384 ;;                         _EnviarDado
  1385 ;; ---------------------------------------------------------------------------------
  1386 ;; (3) _NovoX                                               10     8      2     517
  1387 ;;                                              0 BANK0     10     8      2
  1388 ;;                            _LerDado
  1389 ;; ---------------------------------------------------------------------------------
  1390 ;; (1) _InverterCores                                        5     5      0    1639
  1391 ;;                                             13 COMMON     1     1      0
  1392 ;;                                              0 BANK0      4     4      0
  1393 ;;                          _EnderecoX
  1394 ;;                          _EnderecoY
  1395 ;;                            _LerDado
  1396 ;;                         _EnviarDado
  1397 ;; ---------------------------------------------------------------------------------
  1398 ;; (2) _LigarDisplay                                         1     1      0     270
  1399 ;;                                              8 COMMON     1     1      0
  1400 ;;                     _SelecionarArea
  1401 ;;                                 _RS
  1402 ;;                              _Clock
  1403 ;; ---------------------------------------------------------------------------------
  1404 ;; (2) _EnviarDado                                           3     2      1     314
  1405 ;;                                              8 COMMON     3     2      1
  1406 ;;                     _SelecionarArea
  1407 ;;                                 _RS
  1408 ;;                              _Clock
  1409 ;; ---------------------------------------------------------------------------------
  1410 ;; (2) _LerDado                                              3     3      0     360
  1411 ;;                                             10 COMMON     3     3      0
  1412 ;;                     _SelecionarArea
  1413 ;;                                 _RS
  1414 ;;                    _ClockComLeitura
  1415 ;; ---------------------------------------------------------------------------------
  1416 ;; (2) _EnderecoY                                            3     2      1     314
  1417 ;;                                              8 COMMON     3     2      1
  1418 ;;                     _SelecionarArea
  1419 ;;                                 _RS
  1420 ;;                              _Clock
  1421 ;; ---------------------------------------------------------------------------------
  1422 ;; (2) _EnderecoX                                            3     2      1     314
  1423 ;;                                              8 COMMON     3     2      1
  1424 ;;                     _SelecionarArea
  1425 ;;                                 _RS
  1426 ;;                              _Clock
  1427 ;; ---------------------------------------------------------------------------------
  1428 ;; (3) _ClockComLeitura                                      2     2      0     113
  1429 ;;                                              8 COMMON     2     2      0
  1430 ;;                                 _RW
  1431 ;;                                  _E
  1432 ;;                  _delayMicroseconds
  1433 ;; ---------------------------------------------------------------------------------
  1434 ;; (3) _Clock                                                0     0      0      68
  1435 ;;                                  _E
  1436 ;;                  _delayMicroseconds
  1437 ;; ---------------------------------------------------------------------------------
  1438 ;; (1) _JustificarDireita                                    2     2      0     114
  1439 ;;                                              4 COMMON     2     2      0
  1440 ;;                             ___bmul
  1441 ;; ---------------------------------------------------------------------------------
  1442 ;; (1) _Centralizar                                          7     7      0     114
  1443 ;;                                              6 COMMON     7     7      0
  1444 ;;                             ___wmul
  1445 ;; ---------------------------------------------------------------------------------
  1446 ;; (3) _SelecionarArea                                       2     2      0     180
  1447 ;;                                              3 COMMON     2     2      0
  1448 ;;                                _CS1
  1449 ;;                                _CS2
  1450 ;; ---------------------------------------------------------------------------------
  1451 ;; (4) _delayMicroseconds                                    8     4      4      46
  1452 ;;                                              0 COMMON     8     4      4
  1453 ;; ---------------------------------------------------------------------------------
  1454 ;; (1) _delay                                               10     6      4      46
  1455 ;;                                              0 COMMON    10     6      4
  1456 ;; ---------------------------------------------------------------------------------
  1457 ;; (3) ___wmul                                               6     2      4      92
  1458 ;;                                              0 COMMON     6     2      4
  1459 ;; ---------------------------------------------------------------------------------
  1460 ;; (2) ___bmul                                               4     3      1      92
  1461 ;;                                              0 COMMON     4     3      1
  1462 ;; ---------------------------------------------------------------------------------
  1463 ;; (2) _TamanhoFrase                                         4     2      2      47
  1464 ;;                                              0 COMMON     4     2      2
  1465 ;; ---------------------------------------------------------------------------------
  1466 ;; (4) _CS2                                                  3     3      0      45
  1467 ;;                                              0 COMMON     3     3      0
  1468 ;; ---------------------------------------------------------------------------------
  1469 ;; (4) _CS1                                                  3     3      0      45
  1470 ;;                                              0 COMMON     3     3      0
  1471 ;; ---------------------------------------------------------------------------------
  1472 ;; (3) _RS                                                   3     3      0      22
  1473 ;;                                              0 COMMON     3     3      0
  1474 ;; ---------------------------------------------------------------------------------
  1475 ;; (4) _E                                                    3     3      0      22
  1476 ;;                                              0 COMMON     3     3      0
  1477 ;; ---------------------------------------------------------------------------------
  1478 ;; (4) _RW                                                   3     3      0      22
  1479 ;;                                              0 COMMON     3     3      0
  1480 ;; ---------------------------------------------------------------------------------
  1481 ;; (2) _RST                                                  3     3      0      22
  1482 ;;                                              0 COMMON     3     3      0
  1483 ;; ---------------------------------------------------------------------------------
  1484 ;; Estimated maximum stack depth 4
  1485 ;; ---------------------------------------------------------------------------------
  1486                           
  1487 ;; Call Graph Graphs:
  1488                           
  1489 ;; _main (ROOT)
  1490 ;;   _InicializarDisplay
  1491 ;;     _RST
  1492 ;;     _RW
  1493 ;;     _delay
  1494 ;;     _LigarDisplay
  1495 ;;       _SelecionarArea
  1496 ;;         _CS1
  1497 ;;         _CS2
  1498 ;;       _RS
  1499 ;;       _Clock
  1500 ;;         _E
  1501 ;;         _delayMicroseconds
  1502 ;;     _LimparDisplay
  1503 ;;       _EnderecoX
  1504 ;;         _SelecionarArea
  1505 ;;           _CS1
  1506 ;;           _CS2
  1507 ;;         _RS
  1508 ;;         _Clock
  1509 ;;           _E
  1510 ;;           _delayMicroseconds
  1511 ;;       _EnviarDado
  1512 ;;         _SelecionarArea
  1513 ;;           _CS1
  1514 ;;           _CS2
  1515 ;;         _RS
  1516 ;;         _Clock
  1517 ;;           _E
  1518 ;;           _delayMicroseconds
  1519 ;;   _TamanhoFrase
  1520 ;;   _Centralizar
  1521 ;;     ___wmul
  1522 ;;   _EscreveFrase
  1523 ;;     _EscreveCaractere
  1524 ;;       ___wmul
  1525 ;;       _Ponto
  1526 ;;         _EnderecoX
  1527 ;;           _SelecionarArea
  1528 ;;             _CS1
  1529 ;;             _CS2
  1530 ;;           _RS
  1531 ;;           _Clock
  1532 ;;             _E
  1533 ;;             _delayMicroseconds
  1534 ;;         _EnderecoY
  1535 ;;           _SelecionarArea
  1536 ;;             _CS1
  1537 ;;             _CS2
  1538 ;;           _RS
  1539 ;;           _Clock
  1540 ;;             _E
  1541 ;;             _delayMicroseconds
  1542 ;;         _NovoX
  1543 ;;           _LerDado
  1544 ;;             _SelecionarArea
  1545 ;;               _CS1
  1546 ;;               _CS2
  1547 ;;             _RS
  1548 ;;             _ClockComLeitura
  1549 ;;               _RW
  1550 ;;               _E
  1551 ;;               _delayMicroseconds
  1552 ;;         _EnviarDado
  1553 ;;           _SelecionarArea
  1554 ;;             _CS1
  1555 ;;             _CS2
  1556 ;;           _RS
  1557 ;;           _Clock
  1558 ;;             _E
  1559 ;;             _delayMicroseconds
  1560 ;;     _Centralizar (ARG)
  1561 ;;       ___wmul
  1562 ;;     _TamanhoFrase (ARG)
  1563 ;;     _JustificarDireita (ARG)
  1564 ;;       ___bmul
  1565 ;;   _DesenharBitmap
  1566 ;;     _Ponto
  1567 ;;       _EnderecoX
  1568 ;;         _SelecionarArea
  1569 ;;           _CS1
  1570 ;;           _CS2
  1571 ;;         _RS
  1572 ;;         _Clock
  1573 ;;           _E
  1574 ;;           _delayMicroseconds
  1575 ;;       _EnderecoY
  1576 ;;         _SelecionarArea
  1577 ;;           _CS1
  1578 ;;           _CS2
  1579 ;;         _RS
  1580 ;;         _Clock
  1581 ;;           _E
  1582 ;;           _delayMicroseconds
  1583 ;;       _NovoX
  1584 ;;         _LerDado
  1585 ;;           _SelecionarArea
  1586 ;;             _CS1
  1587 ;;             _CS2
  1588 ;;           _RS
  1589 ;;           _ClockComLeitura
  1590 ;;             _RW
  1591 ;;             _E
  1592 ;;             _delayMicroseconds
  1593 ;;       _EnviarDado
  1594 ;;         _SelecionarArea
  1595 ;;           _CS1
  1596 ;;           _CS2
  1597 ;;         _RS
  1598 ;;         _Clock
  1599 ;;           _E
  1600 ;;           _delayMicroseconds
  1601 ;;   _JustificarDireita
  1602 ;;     ___bmul
  1603 ;;   _delay
  1604 ;;   _InverterCores
  1605 ;;     _EnderecoX
  1606 ;;       _SelecionarArea
  1607 ;;         _CS1
  1608 ;;         _CS2
  1609 ;;       _RS
  1610 ;;       _Clock
  1611 ;;         _E
  1612 ;;         _delayMicroseconds
  1613 ;;     _EnderecoY
  1614 ;;       _SelecionarArea
  1615 ;;         _CS1
  1616 ;;         _CS2
  1617 ;;       _RS
  1618 ;;       _Clock
  1619 ;;         _E
  1620 ;;         _delayMicroseconds
  1621 ;;     _LerDado
  1622 ;;       _SelecionarArea
  1623 ;;         _CS1
  1624 ;;         _CS2
  1625 ;;       _RS
  1626 ;;       _ClockComLeitura
  1627 ;;         _RW
  1628 ;;         _E
  1629 ;;         _delayMicroseconds
  1630 ;;     _EnviarDado
  1631 ;;       _SelecionarArea
  1632 ;;         _CS1
  1633 ;;         _CS2
  1634 ;;       _RS
  1635 ;;       _Clock
  1636 ;;         _E
  1637 ;;         _delayMicroseconds
  1638 ;;
  1639                           
  1640 ;; Address spaces:
  1641                           
  1642 ;;Name               Size   Autos  Total    Cost      Usage
  1643 ;;BITCOMMON            E      0       0       0        0.0%
  1644 ;;EEDATA             100      0       0       0        0.0%
  1645 ;;NULL                 0      0       0       0        0.0%
  1646 ;;CODE                 0      0       0       0        0.0%
  1647 ;;COMMON               E      E       E       1      100.0%
  1648 ;;BITSFR0              0      0       0       1        0.0%
  1649 ;;SFR0                 0      0       0       1        0.0%
  1650 ;;BITSFR1              0      0       0       2        0.0%
  1651 ;;SFR1                 0      0       0       2        0.0%
  1652 ;;STACK                0      0       7       2        0.0%
  1653 ;;ABS                  0      0      63       3        0.0%
  1654 ;;BITBANK0            50      0       0       4        0.0%
  1655 ;;BITSFR3              0      0       0       4        0.0%
  1656 ;;SFR3                 0      0       0       4        0.0%
  1657 ;;BANK0               50     41      41       5       81.3%
  1658 ;;BITSFR2              0      0       0       5        0.0%
  1659 ;;SFR2                 0      0       0       5        0.0%
  1660 ;;BITBANK1            50      0       0       6        0.0%
  1661 ;;BANK1               50      0      14       7       25.0%
  1662 ;;BITBANK3            60      0       0       8        0.0%
  1663 ;;BANK3               60      0       0       9        0.0%
  1664 ;;BITBANK2            60      0       0      10        0.0%
  1665 ;;BANK2               60      0       0      11        0.0%
  1666 ;;DATA                 0      0      6A      12        0.0%
  1667                           
  1668                           	global	_main
  1669                           psect	maintext,global,class=CODE,delta=2
  1670                           global __pmaintext
  1671  0573                     __pmaintext:
  1672                           
  1673 ;; *************** function _main *****************
  1674 ;; Defined at:
  1675 ;;		line 13 in file "C:\OD\OneDrive\Pessoal\Projetos para o GitHub\LCD Gráfico\unit_test.c"
  1676 ;; Parameters:    Size  Location     Type
  1677 ;;		None
  1678 ;; Auto vars:     Size  Location     Type
  1679 ;;  pinos          20   45[BANK0 ] struct .
  1680 ;;  latchb          1   44[BANK0 ] unsigned char 
  1681 ;; Return value:  Size  Location     Type
  1682 ;;		None               void
  1683 ;; Registers used:
  1684 ;;		wreg, fsr0l, fsr0h, status,2, status,0, btemp+1, pclath, cstack
  1685 ;; Tracked objects:
  1686 ;;		On entry : 17F/0
  1687 ;;		On exit  : 0/0
  1688 ;;		Unchanged: 0/0
  1689 ;; Data sizes:     COMMON   BANK0   BANK1   BANK3   BANK2
  1690 ;;      Params:         0       0       0       0       0
  1691 ;;      Locals:         0      21       0       0       0
  1692 ;;      Temps:          0       4       0       0       0
  1693 ;;      Totals:         0      25       0       0       0
  1694 ;;Total ram usage:       25 bytes
  1695 ;; Hardware stack levels required when called:    7
  1696 ;; This function calls:
  1697 ;;		_InicializarDisplay
  1698 ;;		_TamanhoFrase
  1699 ;;		_Centralizar
  1700 ;;		_EscreveFrase
  1701 ;;		_DesenharBitmap
  1702 ;;		_JustificarDireita
  1703 ;;		_delay
  1704 ;;		_InverterCores
  1705 ;; This function is called by:
  1706 ;;		Startup code after reset
  1707 ;; This function uses a non-reentrant model
  1708 ;;
  1709                           psect	maintext
  1710                           	file	"C:\OD\OneDrive\Pessoal\Projetos para o GitHub\LCD Gráfico\unit_test.c"
  1711                           	line	13
  1712                           	global	__size_of_main
  1713  012F                     	__size_of_main	equ	__end_of_main-_main
  1714                           	
  1715  0573                     _main:	
  1716                           	opt	stack 1
  1717                           ; Regs used in _main: [wreg-fsr0h+status,2+status,0+btemp+1+pclath+cstack]
  1718                           	line	14
  1719                           	
  1720  0573                     l5486:	
  1721                           ;unit_test.c: 14: unsigned char latchb = 0;
  1722  0573  1283               	bcf	status, 5	;RP0=0, select bank0
  1723  0574  1303               	bcf	status, 6	;RP1=0, select bank0
  1724  0575  01CC               	clrf	(main@latchb)
  1725                           	line	16
  1726                           	
  1727  0576                     l5488:	
  1728                           ;unit_test.c: 16: TRISA = 0;
  1729  0576  1683               	bsf	status, 5	;RP0=1, select bank1
  1730  0577  1303               	bcf	status, 6	;RP1=0, select bank1
  1731  0578  0185               	clrf	(133)^080h	;volatile
  1732                           	line	17
  1733                           ;unit_test.c: 17: TRISB = 0;
  1734  0579  0186               	clrf	(134)^080h	;volatile
  1735                           	line	18
  1736                           ;unit_test.c: 18: TRISC = 0;
  1737  057A  0187               	clrf	(135)^080h	;volatile
  1738                           	line	21
  1739                           ;unit_test.c: 21: PORTA = 0;
  1740  057B  1283               	bcf	status, 5	;RP0=0, select bank0
  1741  057C  1303               	bcf	status, 6	;RP1=0, select bank0
  1742  057D  0185               	clrf	(5)	;volatile
  1743                           	line	22
  1744                           ;unit_test.c: 22: PORTB = 0;
  1745  057E  0186               	clrf	(6)	;volatile
  1746                           	line	23
  1747                           ;unit_test.c: 23: PORTC = 0;
  1748  057F  0187               	clrf	(7)	;volatile
  1749                           	line	27
  1750                           	
  1751  0580                     l5490:	
  1752                           ;unit_test.c: 26: MCUConfig pinos;
  1753                           ;unit_test.c: 27: pinos.pinoE.porta_pino = &PORTB;
  1754  0580  3006               	movlw	(6)&0ffh
  1755  0581  00C8               	movwf	(??_main+0)+0
  1756  0582  0848               	movf	(??_main+0)+0,w
  1757  0583  00CD               	movwf	(main@pinos)
  1758                           	line	28
  1759                           	
  1760  0584                     l5492:	
  1761                           ;unit_test.c: 28: pinos.pinoE.bit_pino = 7;
  1762  0584  3007               	movlw	(07h)
  1763  0585  00C8               	movwf	(??_main+0)+0
  1764  0586  0848               	movf	(??_main+0)+0,w
  1765  0587  00CF               	movwf	0+(main@pinos)+02h
  1766                           	line	29
  1767                           	
  1768  0588                     l5494:	
  1769                           ;unit_test.c: 29: pinos.pinoE.latch_pino = &latchb;
  1770  0588  304C               	movlw	(main@latchb)&0ffh
  1771  0589  00C8               	movwf	(??_main+0)+0
  1772  058A  0848               	movf	(??_main+0)+0,w
  1773  058B  00CE               	movwf	(0+main@pinos+01h)
  1774                           	line	30
  1775                           	
  1776  058C                     l5496:	
  1777                           ;unit_test.c: 30: pinos.pinoRW.porta_pino = &PORTB;
  1778  058C  3006               	movlw	(6)&0ffh
  1779  058D  00C8               	movwf	(??_main+0)+0
  1780  058E  0848               	movf	(??_main+0)+0,w
  1781  058F  00D0               	movwf	(0+main@pinos+03h)
  1782                           	line	31
  1783                           	
  1784  0590                     l5498:	
  1785                           ;unit_test.c: 31: pinos.pinoRW.bit_pino = 6;
  1786  0590  3006               	movlw	(06h)
  1787  0591  00C8               	movwf	(??_main+0)+0
  1788  0592  0848               	movf	(??_main+0)+0,w
  1789  0593  00D2               	movwf	0+(main@pinos)+05h
  1790                           	line	32
  1791                           	
  1792  0594                     l5500:	
  1793                           ;unit_test.c: 32: pinos.pinoRW.latch_pino = &latchb;
  1794  0594  304C               	movlw	(main@latchb)&0ffh
  1795  0595  00C8               	movwf	(??_main+0)+0
  1796  0596  0848               	movf	(??_main+0)+0,w
  1797  0597  00D1               	movwf	(0+main@pinos+04h)
  1798                           	line	33
  1799                           	
  1800  0598                     l5502:	
  1801                           ;unit_test.c: 33: pinos.pinoRS.porta_pino = &PORTB;
  1802  0598  3006               	movlw	(6)&0ffh
  1803  0599  00C8               	movwf	(??_main+0)+0
  1804  059A  0848               	movf	(??_main+0)+0,w
  1805  059B  00D3               	movwf	(0+main@pinos+06h)
  1806                           	line	34
  1807                           	
  1808  059C                     l5504:	
  1809                           ;unit_test.c: 34: pinos.pinoRS.bit_pino = 5;
  1810  059C  3005               	movlw	(05h)
  1811  059D  00C8               	movwf	(??_main+0)+0
  1812  059E  0848               	movf	(??_main+0)+0,w
  1813  059F  00D5               	movwf	0+(main@pinos)+08h
  1814                           	line	35
  1815                           	
  1816  05A0                     l5506:	
  1817                           ;unit_test.c: 35: pinos.pinoRS.latch_pino = &latchb;
  1818  05A0  304C               	movlw	(main@latchb)&0ffh
  1819  05A1  00C8               	movwf	(??_main+0)+0
  1820  05A2  0848               	movf	(??_main+0)+0,w
  1821  05A3  00D4               	movwf	(0+main@pinos+07h)
  1822                           	line	36
  1823                           	
  1824  05A4                     l5508:	
  1825                           ;unit_test.c: 36: pinos.pinoCS1.porta_pino = &PORTB;
  1826  05A4  3006               	movlw	(6)&0ffh
  1827  05A5  00C8               	movwf	(??_main+0)+0
  1828  05A6  0848               	movf	(??_main+0)+0,w
  1829  05A7  00D6               	movwf	(0+main@pinos+09h)
  1830                           	line	37
  1831                           	
  1832  05A8                     l5510:	
  1833                           ;unit_test.c: 37: pinos.pinoCS1.bit_pino = 3;
  1834  05A8  3003               	movlw	(03h)
  1835  05A9  00C8               	movwf	(??_main+0)+0
  1836  05AA  0848               	movf	(??_main+0)+0,w
  1837  05AB  00D8               	movwf	0+(main@pinos)+0Bh
  1838                           	line	38
  1839                           	
  1840  05AC                     l5512:	
  1841                           ;unit_test.c: 38: pinos.pinoCS1.latch_pino = &latchb;
  1842  05AC  304C               	movlw	(main@latchb)&0ffh
  1843  05AD  00C8               	movwf	(??_main+0)+0
  1844  05AE  0848               	movf	(??_main+0)+0,w
  1845  05AF  00D7               	movwf	(0+main@pinos+0Ah)
  1846                           	line	39
  1847                           	
  1848  05B0                     l5514:	
  1849                           ;unit_test.c: 39: pinos.pinoCS2.porta_pino = &PORTB;
  1850  05B0  3006               	movlw	(6)&0ffh
  1851  05B1  00C8               	movwf	(??_main+0)+0
  1852  05B2  0848               	movf	(??_main+0)+0,w
  1853  05B3  00D9               	movwf	(0+main@pinos+0Ch)
  1854                           	line	40
  1855                           	
  1856  05B4                     l5516:	
  1857                           ;unit_test.c: 40: pinos.pinoCS2.bit_pino = 4;
  1858  05B4  3004               	movlw	(04h)
  1859  05B5  00C8               	movwf	(??_main+0)+0
  1860  05B6  0848               	movf	(??_main+0)+0,w
  1861  05B7  00DB               	movwf	0+(main@pinos)+0Eh
  1862                           	line	41
  1863                           	
  1864  05B8                     l5518:	
  1865                           ;unit_test.c: 41: pinos.pinoCS2.latch_pino = &latchb;
  1866  05B8  304C               	movlw	(main@latchb)&0ffh
  1867  05B9  00C8               	movwf	(??_main+0)+0
  1868  05BA  0848               	movf	(??_main+0)+0,w
  1869  05BB  00DA               	movwf	(0+main@pinos+0Dh)
  1870                           	line	42
  1871                           	
  1872  05BC                     l5520:	
  1873                           ;unit_test.c: 42: pinos.pinoRST.porta_pino = &PORTB;
  1874  05BC  3006               	movlw	(6)&0ffh
  1875  05BD  00C8               	movwf	(??_main+0)+0
  1876  05BE  0848               	movf	(??_main+0)+0,w
  1877  05BF  00DC               	movwf	(0+main@pinos+0Fh)
  1878                           	line	43
  1879                           	
  1880  05C0                     l5522:	
  1881                           ;unit_test.c: 43: pinos.pinoRST.bit_pino = 2;
  1882  05C0  3002               	movlw	(02h)
  1883  05C1  00C8               	movwf	(??_main+0)+0
  1884  05C2  0848               	movf	(??_main+0)+0,w
  1885  05C3  00DE               	movwf	0+(main@pinos)+011h
  1886                           	line	44
  1887                           	
  1888  05C4                     l5524:	
  1889                           ;unit_test.c: 44: pinos.pinoRST.latch_pino = &latchb;
  1890  05C4  304C               	movlw	(main@latchb)&0ffh
  1891  05C5  00C8               	movwf	(??_main+0)+0
  1892  05C6  0848               	movf	(??_main+0)+0,w
  1893  05C7  00DD               	movwf	(0+main@pinos+010h)
  1894                           	line	45
  1895                           	
  1896  05C8                     l5526:	
  1897                           ;unit_test.c: 45: pinos.latchDADOS.latch = &PORTC;
  1898  05C8  3007               	movlw	(7)&0ffh
  1899  05C9  00C8               	movwf	(??_main+0)+0
  1900  05CA  0848               	movf	(??_main+0)+0,w
  1901  05CB  00DF               	movwf	(0+main@pinos+012h)
  1902                           	line	46
  1903                           	
  1904  05CC                     l5528:	
  1905                           ;unit_test.c: 46: pinos.latchDADOS.tris = &TRISC;
  1906  05CC  3087               	movlw	(135)&0ffh
  1907  05CD  00C8               	movwf	(??_main+0)+0
  1908  05CE  0848               	movf	(??_main+0)+0,w
  1909  05CF  00E0               	movwf	(0+main@pinos+013h)
  1910                           	line	49
  1911                           	
  1912  05D0                     l5530:	
  1913                           ;unit_test.c: 49: InicializarDisplay(pinos);
  1914  05D0  3020               	movlw	(?_InicializarDisplay)&0ffh
  1915  05D1  0084               	movwf	fsr0
  1916  05D2  304D               	movlw	low(main@pinos)
  1917  05D3  00C8               	movwf	(??_main+0)+0
  1918  05D4  0804               	movf	fsr0,w
  1919  05D5  00C9               	movwf	((??_main+0)+0+1)
  1920  05D6  3014               	movlw	20
  1921  05D7  00CA               	movwf	((??_main+0)+0+2)
  1922  05D8                     u3610:
  1923  05D8  0848               	movf	(??_main+0)+0,w
  1924  05D9  0084               	movwf	fsr0
  1925  05DA  1383               	bcf	status, 7	;select IRP bank0
  1926                           	
  1927  05DB  0800               	movf	indf,w
  1928  05DC  00CB               	movwf	((??_main+0)+0+3)
  1929  05DD  0AC8               	incf	(??_main+0)+0,f
  1930  05DE  0849               	movf	((??_main+0)+0+1),w
  1931  05DF  0084               	movwf	fsr0
  1932                           	
  1933  05E0  084B               	movf	((??_main+0)+0+3),w
  1934  05E1  0080               	movwf	indf
  1935  05E2  0AC9               	incf	((??_main+0)+0+1),f
  1936  05E3  0BCA               	decfsz	((??_main+0)+0+2),f
  1937  05E4  2DD8               	goto	u3610
  1938  05E5  120A  118A  2344   	fcall	_InicializarDisplay
              120A  118A         
  1939                           	line	50
  1940                           	
  1941  05EA                     l5532:	
  1942                           ;unit_test.c: 50: EscreveFrase("Driver LCD grafico", 1, Centralizar(TamanhoFrase("Driver
                                  LCD grafico")), 1);
  1943  05EA  302E               	movlw	low(STR_1|8000h)
  1944  05EB  1283               	bcf	status, 5	;RP0=0, select bank0
  1945  05EC  1303               	bcf	status, 6	;RP1=0, select bank0
  1946  05ED  00C0               	movwf	(?_EscreveFrase)
  1947  05EE  309F               	movlw	high(STR_1|8000h)
  1948  05EF  00C1               	movwf	((?_EscreveFrase))+1
  1949  05F0  01C2               	clrf	0+(?_EscreveFrase)+02h
  1950  05F1  1403               	bsf	status,0
  1951  05F2  0DC2               	rlf	0+(?_EscreveFrase)+02h,f
  1952  05F3  302E               	movlw	low(STR_2|8000h)
  1953  05F4  00F0               	movwf	(?_TamanhoFrase)
  1954  05F5  309F               	movlw	high(STR_2|8000h)
  1955  05F6  00F1               	movwf	((?_TamanhoFrase))+1
  1956  05F7  120A  158A  2779   	fcall	_TamanhoFrase
              120A  118A         
  1957  05FC  120A  118A  20AD   	fcall	_Centralizar
              120A  118A         
  1958  0601  1283               	bcf	status, 5	;RP0=0, select bank0
  1959  0602  1303               	bcf	status, 6	;RP1=0, select bank0
  1960  0603  00C8               	movwf	(??_main+0)+0
  1961  0604  0848               	movf	(??_main+0)+0,w
  1962  0605  00C3               	movwf	0+(?_EscreveFrase)+03h
  1963  0606  01C4               	clrf	0+(?_EscreveFrase)+04h
  1964  0607  1403               	bsf	status,0
  1965  0608  0DC4               	rlf	0+(?_EscreveFrase)+04h,f
  1966  0609  120A  118A  2284   	fcall	_EscreveFrase
              120A  118A         
  1967                           	line	51
  1968                           	
  1969  060E                     l5534:	
  1970                           ;unit_test.c: 51: EscreveFrase("Leonardo Felzmann", 9, Centralizar(TamanhoFrase("Leonard
                                 o Felzmann")), 1);
  1971  060E  3041               	movlw	low(STR_3|8000h)
  1972  060F  1283               	bcf	status, 5	;RP0=0, select bank0
  1973  0610  1303               	bcf	status, 6	;RP1=0, select bank0
  1974  0611  00C0               	movwf	(?_EscreveFrase)
  1975  0612  309F               	movlw	high(STR_3|8000h)
  1976  0613  00C1               	movwf	((?_EscreveFrase))+1
  1977  0614  3009               	movlw	(09h)
  1978  0615  00C8               	movwf	(??_main+0)+0
  1979  0616  0848               	movf	(??_main+0)+0,w
  1980  0617  00C2               	movwf	0+(?_EscreveFrase)+02h
  1981  0618  3041               	movlw	low(STR_4|8000h)
  1982  0619  00F0               	movwf	(?_TamanhoFrase)
  1983  061A  309F               	movlw	high(STR_4|8000h)
  1984  061B  00F1               	movwf	((?_TamanhoFrase))+1
  1985  061C  120A  158A  2779   	fcall	_TamanhoFrase
              120A  118A         
  1986  0621  120A  118A  20AD   	fcall	_Centralizar
              120A  118A         
  1987  0626  1283               	bcf	status, 5	;RP0=0, select bank0
  1988  0627  1303               	bcf	status, 6	;RP1=0, select bank0
  1989  0628  00C9               	movwf	(??_main+1)+0
  1990  0629  0849               	movf	(??_main+1)+0,w
  1991  062A  00C3               	movwf	0+(?_EscreveFrase)+03h
  1992  062B  01C4               	clrf	0+(?_EscreveFrase)+04h
  1993  062C  1403               	bsf	status,0
  1994  062D  0DC4               	rlf	0+(?_EscreveFrase)+04h,f
  1995  062E  120A  118A  2284   	fcall	_EscreveFrase
              120A  118A         
  1996                           	line	52
  1997                           	
  1998  0633                     l5536:	
  1999                           ;unit_test.c: 52: DesenharBitmap(bitmap_computador, 17, 51, 1, 35, 5);
  2000  0633  307F               	movlw	low(_bitmap_computador|8000h)
  2001  0634  1283               	bcf	status, 5	;RP0=0, select bank0
  2002  0635  1303               	bcf	status, 6	;RP1=0, select bank0
  2003  0636  00B2               	movwf	(?_DesenharBitmap)
  2004  0637  309E               	movlw	high(_bitmap_computador|8000h)
  2005  0638  00B3               	movwf	((?_DesenharBitmap))+1
  2006  0639  3011               	movlw	(011h)
  2007  063A  00C8               	movwf	(??_main+0)+0
  2008  063B  0848               	movf	(??_main+0)+0,w
  2009  063C  00B4               	movwf	0+(?_DesenharBitmap)+02h
  2010  063D  3033               	movlw	(033h)
  2011  063E  00C9               	movwf	(??_main+1)+0
  2012  063F  0849               	movf	(??_main+1)+0,w
  2013  0640  00B5               	movwf	0+(?_DesenharBitmap)+03h
  2014  0641  01B6               	clrf	0+(?_DesenharBitmap)+04h
  2015  0642  1403               	bsf	status,0
  2016  0643  0DB6               	rlf	0+(?_DesenharBitmap)+04h,f
  2017  0644  3023               	movlw	(023h)
  2018  0645  00CA               	movwf	(??_main+2)+0
  2019  0646  084A               	movf	(??_main+2)+0,w
  2020  0647  00B7               	movwf	0+(?_DesenharBitmap)+05h
  2021  0648  3005               	movlw	(05h)
  2022  0649  00CB               	movwf	(??_main+3)+0
  2023  064A  084B               	movf	(??_main+3)+0,w
  2024  064B  00B8               	movwf	0+(?_DesenharBitmap)+06h
  2025  064C  120A  118A  24EE   	fcall	_DesenharBitmap
              120A  118A         
  2026                           	line	53
  2027                           	
  2028  0651                     l5538:	
  2029                           ;unit_test.c: 53: EscreveFrase("V1.0", 57, 1, 1);
  2030  0651  305E               	movlw	low(STR_5|8000h)
  2031  0652  1283               	bcf	status, 5	;RP0=0, select bank0
  2032  0653  1303               	bcf	status, 6	;RP1=0, select bank0
  2033  0654  00C0               	movwf	(?_EscreveFrase)
  2034  0655  309F               	movlw	high(STR_5|8000h)
  2035  0656  00C1               	movwf	((?_EscreveFrase))+1
  2036  0657  3039               	movlw	(039h)
  2037  0658  00C8               	movwf	(??_main+0)+0
  2038  0659  0848               	movf	(??_main+0)+0,w
  2039  065A  00C2               	movwf	0+(?_EscreveFrase)+02h
  2040  065B  01C3               	clrf	0+(?_EscreveFrase)+03h
  2041  065C  1403               	bsf	status,0
  2042  065D  0DC3               	rlf	0+(?_EscreveFrase)+03h,f
  2043  065E  01C4               	clrf	0+(?_EscreveFrase)+04h
  2044  065F  1403               	bsf	status,0
  2045  0660  0DC4               	rlf	0+(?_EscreveFrase)+04h,f
  2046  0661  120A  118A  2284   	fcall	_EscreveFrase
              120A  118A         
  2047                           	line	54
  2048                           	
  2049  0666                     l5540:	
  2050                           ;unit_test.c: 54: EscreveFrase("2022/07/12", 57, JustificarDireita(TamanhoFrase("2022/07
                                 /12")), 1);
  2051  0666  3053               	movlw	low(STR_6|8000h)
  2052  0667  1283               	bcf	status, 5	;RP0=0, select bank0
  2053  0668  1303               	bcf	status, 6	;RP1=0, select bank0
  2054  0669  00C0               	movwf	(?_EscreveFrase)
  2055  066A  309F               	movlw	high(STR_6|8000h)
  2056  066B  00C1               	movwf	((?_EscreveFrase))+1
  2057  066C  3039               	movlw	(039h)
  2058  066D  00C8               	movwf	(??_main+0)+0
  2059  066E  0848               	movf	(??_main+0)+0,w
  2060  066F  00C2               	movwf	0+(?_EscreveFrase)+02h
  2061  0670  3053               	movlw	low(STR_7|8000h)
  2062  0671  00F0               	movwf	(?_TamanhoFrase)
  2063  0672  309F               	movlw	high(STR_7|8000h)
  2064  0673  00F1               	movwf	((?_TamanhoFrase))+1
  2065  0674  120A  158A  2779   	fcall	_TamanhoFrase
              120A  118A         
  2066  0679  120A  118A  2006   	fcall	_JustificarDireita
              120A  118A         
  2067  067E  1283               	bcf	status, 5	;RP0=0, select bank0
  2068  067F  1303               	bcf	status, 6	;RP1=0, select bank0
  2069  0680  00C9               	movwf	(??_main+1)+0
  2070  0681  0849               	movf	(??_main+1)+0,w
  2071  0682  00C3               	movwf	0+(?_EscreveFrase)+03h
  2072  0683  01C4               	clrf	0+(?_EscreveFrase)+04h
  2073  0684  1403               	bsf	status,0
  2074  0685  0DC4               	rlf	0+(?_EscreveFrase)+04h,f
  2075  0686  120A  118A  2284   	fcall	_EscreveFrase
              120A  118A         
  2076                           	line	55
  2077                           	
  2078  068B                     l5542:	
  2079                           ;unit_test.c: 55: delay(2000);
  2080  068B  3000               	movlw	0
  2081  068C  00F3               	movwf	(?_delay+3)
  2082  068D  3000               	movlw	0
  2083  068E  00F2               	movwf	(?_delay+2)
  2084  068F  3007               	movlw	07h
  2085  0690  00F1               	movwf	(?_delay+1)
  2086  0691  30D0               	movlw	0D0h
  2087  0692  00F0               	movwf	(?_delay)
  2088                           
  2089  0693  120A  118A  2105   	fcall	_delay
              120A  118A         
  2090                           	line	56
  2091                           	
  2092  0698                     l5544:	
  2093                           ;unit_test.c: 56: InverterCores();
  2094  0698  120A  118A  2472   	fcall	_InverterCores
              120A  118A         
  2095  069D  2E9E               	goto	l1190
  2096                           	line	57
  2097                           ;unit_test.c: 57: while(1)
  2098                           	
  2099  069E                     l1189:	
  2100                           	line	59
  2101                           ;unit_test.c: 58: {
  2102                           	
  2103  069E                     l1190:	
  2104                           	line	57
  2105  069E  2E9E               	goto	l1190
  2106                           	
  2107  069F                     l1191:	
  2108                           	line	60
  2109                           	
  2110  069F                     l1192:	
  2111                           	global	start
  2112  069F  120A  118A  2800   	ljmp	start
  2113                           	opt stack 0
  2114                           GLOBAL	__end_of_main
  2115  06A2                     	__end_of_main:
  2116 ;; =============== function _main ends ============
  2117                           
  2118                           	signat	_main,88
  2119                           	global	_EscreveFrase
  2120                           psect	text651,local,class=CODE,delta=2
  2121                           global __ptext651
  2122  0284                     __ptext651:
  2123                           
  2124 ;; *************** function _EscreveFrase *****************
  2125 ;; Defined at:
  2126 ;;		line 173 in file "C:\OD\OneDrive\Pessoal\Projetos para o GitHub\LCD Gráfico\recursos_texto.c"
  2127 ;; Parameters:    Size  Location     Type
  2128 ;;  frase           2   32[BANK0 ] PTR const unsigned char 
  2129 ;;		 -> STR_6(11), STR_5(5), STR_3(18), STR_1(19), 
  2130 ;;  x               1   34[BANK0 ] unsigned char 
  2131 ;;  y               1   35[BANK0 ] unsigned char 
  2132 ;;  cor             1   36[BANK0 ] unsigned char 
  2133 ;; Auto vars:     Size  Location     Type
  2134 ;;		None
  2135 ;; Return value:  Size  Location     Type
  2136 ;;		None               void
  2137 ;; Registers used:
  2138 ;;		wreg, fsr0l, fsr0h, status,2, status,0, btemp+1, pclath, cstack
  2139 ;; Tracked objects:
  2140 ;;		On entry : 0/0
  2141 ;;		On exit  : 0/0
  2142 ;;		Unchanged: 0/0
  2143 ;; Data sizes:     COMMON   BANK0   BANK1   BANK3   BANK2
  2144 ;;      Params:         0       5       0       0       0
  2145 ;;      Locals:         0       0       0       0       0
  2146 ;;      Temps:          0       3       0       0       0
  2147 ;;      Totals:         0       8       0       0       0
  2148 ;;Total ram usage:        8 bytes
  2149 ;; Hardware stack levels used:    1
  2150 ;; Hardware stack levels required when called:    6
  2151 ;; This function calls:
  2152 ;;		_EscreveCaractere
  2153 ;; This function is called by:
  2154 ;;		_main
  2155 ;; This function uses a non-reentrant model
  2156 ;;
  2157                           psect	text651
  2158                           	file	"C:\OD\OneDrive\Pessoal\Projetos para o GitHub\LCD Gráfico\recursos_texto.c"
  2159                           	line	173
  2160                           	global	__size_of_EscreveFrase
  2161  003C                     	__size_of_EscreveFrase	equ	__end_of_EscreveFrase-_EscreveFrase
  2162                           	
  2163  0284                     _EscreveFrase:	
  2164                           	opt	stack 1
  2165                           ; Regs used in _EscreveFrase: [wreg-fsr0h+status,2+status,0+btemp+1+pclath+cstack]
  2166                           	line	174
  2167                           	
  2168  0284                     l5476:	
  2169                           ;recursos_texto.c: 174: while(*frase)
  2170  0284  2AAE               	goto	l5484
  2171                           	
  2172  0285                     l198:	
  2173                           	line	176
  2174                           	
  2175  0285                     l5478:	
  2176                           ;recursos_texto.c: 175: {
  2177                           ;recursos_texto.c: 176: EscreveCaractere(*frase, x, y, cor);
  2178  0285  1283               	bcf	status, 5	;RP0=0, select bank0
  2179  0286  1303               	bcf	status, 6	;RP1=0, select bank0
  2180  0287  0842               	movf	(EscreveFrase@x),w
  2181  0288  00C5               	movwf	(??_EscreveFrase+0)+0
  2182  0289  0845               	movf	(??_EscreveFrase+0)+0,w
  2183  028A  00B2               	movwf	(?_EscreveCaractere)
  2184  028B  0843               	movf	(EscreveFrase@y),w
  2185  028C  00C6               	movwf	(??_EscreveFrase+1)+0
  2186  028D  0846               	movf	(??_EscreveFrase+1)+0,w
  2187  028E  00B3               	movwf	0+(?_EscreveCaractere)+01h
  2188  028F  0844               	movf	(EscreveFrase@cor),w
  2189  0290  00C7               	movwf	(??_EscreveFrase+2)+0
  2190  0291  0847               	movf	(??_EscreveFrase+2)+0,w
  2191  0292  00B4               	movwf	0+(?_EscreveCaractere)+02h
  2192  0293  0841               	movf	(EscreveFrase@frase+1),w
  2193  0294  00FF               	movwf	btemp+1
  2194  0295  0840               	movf	(EscreveFrase@frase),w
  2195  0296  0084               	movwf	fsr0
  2196  0297  160A  158A  2500   	fcall	stringtab
              120A  118A         
  2197  029C  120A  118A  26A2   	fcall	_EscreveCaractere
              120A  118A         
  2198                           	line	177
  2199                           	
  2200  02A1                     l5480:	
  2201                           ;recursos_texto.c: 177: frase++;
  2202  02A1  3001               	movlw	low(01h)
  2203  02A2  1283               	bcf	status, 5	;RP0=0, select bank0
  2204  02A3  1303               	bcf	status, 6	;RP1=0, select bank0
  2205  02A4  07C0               	addwf	(EscreveFrase@frase),f
  2206  02A5  1803               	skipnc
  2207  02A6  0AC1               	incf	(EscreveFrase@frase+1),f
  2208  02A7  3000               	movlw	high(01h)
  2209  02A8  07C1               	addwf	(EscreveFrase@frase+1),f
  2210                           	line	178
  2211                           	
  2212  02A9                     l5482:	
  2213                           ;recursos_texto.c: 178: y += (5 + 1);
  2214  02A9  3006               	movlw	(06h)
  2215  02AA  00C5               	movwf	(??_EscreveFrase+0)+0
  2216  02AB  0845               	movf	(??_EscreveFrase+0)+0,w
  2217  02AC  07C3               	addwf	(EscreveFrase@y),f
  2218  02AD  2AAE               	goto	l5484
  2219                           	line	179
  2220                           	
  2221  02AE                     l197:	
  2222                           	line	174
  2223                           	
  2224  02AE                     l5484:	
  2225  02AE  1283               	bcf	status, 5	;RP0=0, select bank0
  2226  02AF  1303               	bcf	status, 6	;RP1=0, select bank0
  2227  02B0  0841               	movf	(EscreveFrase@frase+1),w
  2228  02B1  00FF               	movwf	btemp+1
  2229  02B2  0840               	movf	(EscreveFrase@frase),w
  2230  02B3  0084               	movwf	fsr0
  2231  02B4  160A  158A  2500   	fcall	stringtab
              120A  118A         
  2232  02B9  3800               	iorlw	0
  2233  02BA  1D03               	skipz
  2234  02BB  2ABD               	goto	u3601
  2235  02BC  2ABE               	goto	u3600
  2236  02BD                     u3601:
  2237  02BD  2A85               	goto	l5478
  2238  02BE                     u3600:
  2239  02BE  2ABF               	goto	l200
  2240                           	
  2241  02BF                     l199:	
  2242                           	line	180
  2243                           	
  2244  02BF                     l200:	
  2245  02BF  0008               	return
  2246                           	opt stack 0
  2247                           GLOBAL	__end_of_EscreveFrase
  2248  02C0                     	__end_of_EscreveFrase:
  2249 ;; =============== function _EscreveFrase ends ============
  2250                           
  2251                           	signat	_EscreveFrase,16504
  2252                           	global	_DesenharBitmap
  2253                           psect	text652,local,class=CODE,delta=2
  2254                           global __ptext652
  2255  04EE                     __ptext652:
  2256                           
  2257 ;; *************** function _DesenharBitmap *****************
  2258 ;; Defined at:
  2259 ;;		line 14 in file "C:\OD\OneDrive\Pessoal\Projetos para o GitHub\LCD Gráfico\bitmap.c"
  2260 ;; Parameters:    Size  Location     Type
  2261 ;;  bitmap          2   18[BANK0 ] PTR const unsigned char 
  2262 ;;		 -> bitmap_computador(175), 
  2263 ;;  x               1   20[BANK0 ] unsigned char 
  2264 ;;  y               1   21[BANK0 ] unsigned char 
  2265 ;;  cor             1   22[BANK0 ] unsigned char 
  2266 ;;  altura_px       1   23[BANK0 ] unsigned char 
  2267 ;;  largura_byte    1   24[BANK0 ] unsigned char 
  2268 ;; Auto vars:     Size  Location     Type
  2269 ;;  bits            1   34[BANK0 ] unsigned char 
  2270 ;;  mascara         1   33[BANK0 ] unsigned char 
  2271 ;;  ponto           1   32[BANK0 ] unsigned char 
  2272 ;;  novoY           1   31[BANK0 ] unsigned char 
  2273 ;;  largura         1   30[BANK0 ] unsigned char 
  2274 ;;  altura          1   29[BANK0 ] unsigned char 
  2275 ;; Return value:  Size  Location     Type
  2276 ;;		None               void
  2277 ;; Registers used:
  2278 ;;		wreg, fsr0l, fsr0h, status,2, status,0, btemp+1, pclath, cstack
  2279 ;; Tracked objects:
  2280 ;;		On entry : 0/0
  2281 ;;		On exit  : 0/0
  2282 ;;		Unchanged: 0/0
  2283 ;; Data sizes:     COMMON   BANK0   BANK1   BANK3   BANK2
  2284 ;;      Params:         0       7       0       0       0
  2285 ;;      Locals:         0       8       0       0       0
  2286 ;;      Temps:          0       2       0       0       0
  2287 ;;      Totals:         0      17       0       0       0
  2288 ;;Total ram usage:       17 bytes
  2289 ;; Hardware stack levels used:    1
  2290 ;; Hardware stack levels required when called:    5
  2291 ;; This function calls:
  2292 ;;		_Ponto
  2293 ;; This function is called by:
  2294 ;;		_main
  2295 ;; This function uses a non-reentrant model
  2296 ;;
  2297                           psect	text652
  2298                           	file	"C:\OD\OneDrive\Pessoal\Projetos para o GitHub\LCD Gráfico\bitmap.c"
  2299                           	line	14
  2300                           	global	__size_of_DesenharBitmap
  2301  0085                     	__size_of_DesenharBitmap	equ	__end_of_DesenharBitmap-_DesenharBitmap
  2302                           	
  2303  04EE                     _DesenharBitmap:	
  2304                           	opt	stack 2
  2305                           ; Regs used in _DesenharBitmap: [wreg-fsr0h+status,2+status,0+btemp+1+pclath+cstack]
  2306                           	line	21
  2307                           	
  2308  04EE                     l5436:	
  2309                           ;bitmap.c: 15: unsigned char altura;
  2310                           ;bitmap.c: 16: unsigned char largura;
  2311                           ;bitmap.c: 17: unsigned char mascara;
  2312                           ;bitmap.c: 18: unsigned char bits;
  2313                           ;bitmap.c: 19: unsigned char novoY;
  2314                           ;bitmap.c: 20: unsigned char ponto;
  2315                           ;bitmap.c: 21: for(altura = 0; altura < altura_px; altura++)
  2316  04EE  1283               	bcf	status, 5	;RP0=0, select bank0
  2317  04EF  1303               	bcf	status, 6	;RP1=0, select bank0
  2318  04F0  01BD               	clrf	(DesenharBitmap@altura)
  2319  04F1  2D6B               	goto	l5474
  2320                           	line	22
  2321                           	
  2322  04F2                     l2180:	
  2323                           	line	23
  2324                           	
  2325  04F2                     l5438:	
  2326                           ;bitmap.c: 22: {
  2327                           ;bitmap.c: 23: novoY = y;
  2328  04F2  0835               	movf	(DesenharBitmap@y),w
  2329  04F3  00B9               	movwf	(??_DesenharBitmap+0)+0
  2330  04F4  0839               	movf	(??_DesenharBitmap+0)+0,w
  2331  04F5  00BF               	movwf	(DesenharBitmap@novoY)
  2332                           	line	24
  2333                           	
  2334  04F6                     l5440:	
  2335                           ;bitmap.c: 24: for(largura = 0; largura < largura_bytes; largura++)
  2336  04F6  01BE               	clrf	(DesenharBitmap@largura)
  2337  04F7  2D5B               	goto	l5470
  2338                           	line	25
  2339                           	
  2340  04F8                     l2182:	
  2341                           	line	26
  2342                           	
  2343  04F8                     l5442:	
  2344                           ;bitmap.c: 25: {
  2345                           ;bitmap.c: 26: mascara = 0b10000000;
  2346  04F8  3080               	movlw	(080h)
  2347  04F9  00B9               	movwf	(??_DesenharBitmap+0)+0
  2348  04FA  0839               	movf	(??_DesenharBitmap+0)+0,w
  2349  04FB  00C1               	movwf	(DesenharBitmap@mascara)
  2350                           	line	27
  2351                           	
  2352  04FC                     l5444:	
  2353                           ;bitmap.c: 27: for(bits = 0; bits < 8; bits++)
  2354  04FC  01C2               	clrf	(DesenharBitmap@bits)
  2355  04FD  3008               	movlw	(08h)
  2356  04FE  0242               	subwf	(DesenharBitmap@bits),w
  2357  04FF  1C03               	skipc
  2358  0500  2D02               	goto	u3551
  2359  0501  2D03               	goto	u3550
  2360  0502                     u3551:
  2361  0502  2D05               	goto	l5448
  2362  0503                     u3550:
  2363  0503  2D50               	goto	l5466
  2364                           	
  2365  0504                     l5446:	
  2366  0504  2D50               	goto	l5466
  2367                           	line	28
  2368                           	
  2369  0505                     l2183:	
  2370                           	line	29
  2371                           	
  2372  0505                     l5448:	
  2373                           ;bitmap.c: 28: {
  2374                           ;bitmap.c: 29: ponto = *bitmap & mascara;
  2375  0505  0833               	movf	(DesenharBitmap@bitmap+1),w
  2376  0506  00FF               	movwf	btemp+1
  2377  0507  0832               	movf	(DesenharBitmap@bitmap),w
  2378  0508  0084               	movwf	fsr0
  2379  0509  160A  158A  2500   	fcall	stringtab
              120A  118A         
  2380  050E  0541               	andwf	(DesenharBitmap@mascara),w
  2381  050F  00B9               	movwf	(??_DesenharBitmap+0)+0
  2382  0510  0839               	movf	(??_DesenharBitmap+0)+0,w
  2383  0511  00C0               	movwf	(DesenharBitmap@ponto)
  2384                           	line	30
  2385                           	
  2386  0512                     l5450:	
  2387                           ;bitmap.c: 30: Ponto(x, novoY, cor ? ponto : !ponto);
  2388  0512  08B6               	movf	(DesenharBitmap@cor),f
  2389  0513  1D03               	skipz
  2390  0514  2D16               	goto	u3561
  2391  0515  2D17               	goto	u3560
  2392  0516                     u3561:
  2393  0516  2D22               	goto	l5454
  2394  0517                     u3560:
  2395                           	
  2396  0517                     l5452:	
  2397  0517  08C0               	movf	(DesenharBitmap@ponto)
  2398  0518  3000               	movlw	0
  2399  0519  1903               	skipnz
  2400  051A  3001               	movlw	1
  2401  051B  00B9               	movwf	(??_DesenharBitmap+0)+0
  2402  051C  01BA               	clrf	(??_DesenharBitmap+0)+0+1
  2403  051D  0839               	movf	0+(??_DesenharBitmap+0)+0,w
  2404  051E  00BB               	movwf	(_DesenharBitmap$3225)
  2405  051F  083A               	movf	1+(??_DesenharBitmap+0)+0,w
  2406  0520  00BC               	movwf	(_DesenharBitmap$3225+1)
  2407  0521  2D2A               	goto	l5456
  2408                           	
  2409  0522                     l2186:	
  2410                           	
  2411  0522                     l5454:	
  2412  0522  0840               	movf	(DesenharBitmap@ponto),w
  2413  0523  00B9               	movwf	(??_DesenharBitmap+0)+0
  2414  0524  01BA               	clrf	(??_DesenharBitmap+0)+0+1
  2415  0525  0839               	movf	0+(??_DesenharBitmap+0)+0,w
  2416  0526  00BB               	movwf	(_DesenharBitmap$3225)
  2417  0527  083A               	movf	1+(??_DesenharBitmap+0)+0,w
  2418  0528  00BC               	movwf	(_DesenharBitmap$3225+1)
  2419  0529  2D2A               	goto	l5456
  2420                           	
  2421  052A                     l2188:	
  2422                           	
  2423  052A                     l5456:	
  2424  052A  083F               	movf	(DesenharBitmap@novoY),w
  2425  052B  00B9               	movwf	(??_DesenharBitmap+0)+0
  2426  052C  0839               	movf	(??_DesenharBitmap+0)+0,w
  2427  052D  00AA               	movwf	(?_Ponto)
  2428  052E  083B               	movf	(_DesenharBitmap$3225),w
  2429  052F  00BA               	movwf	(??_DesenharBitmap+1)+0
  2430  0530  083A               	movf	(??_DesenharBitmap+1)+0,w
  2431  0531  00AB               	movwf	0+(?_Ponto)+01h
  2432  0532  0834               	movf	(DesenharBitmap@x),w
  2433  0533  120A  118A  23FE   	fcall	_Ponto
              120A  118A         
  2434                           	line	31
  2435                           	
  2436  0538                     l5458:	
  2437                           ;bitmap.c: 31: novoY++;
  2438  0538  3001               	movlw	(01h)
  2439  0539  1283               	bcf	status, 5	;RP0=0, select bank0
  2440  053A  1303               	bcf	status, 6	;RP1=0, select bank0
  2441  053B  00B9               	movwf	(??_DesenharBitmap+0)+0
  2442  053C  0839               	movf	(??_DesenharBitmap+0)+0,w
  2443  053D  07BF               	addwf	(DesenharBitmap@novoY),f
  2444                           	line	32
  2445                           	
  2446  053E                     l5460:	
  2447                           ;bitmap.c: 32: mascara = mascara >> 1;
  2448  053E  0841               	movf	(DesenharBitmap@mascara),w
  2449  053F  00B9               	movwf	(??_DesenharBitmap+0)+0
  2450  0540  1003               	clrc
  2451  0541  0C39               	rrf	(??_DesenharBitmap+0)+0,w
  2452  0542  00BA               	movwf	(??_DesenharBitmap+1)+0
  2453  0543  083A               	movf	(??_DesenharBitmap+1)+0,w
  2454  0544  00C1               	movwf	(DesenharBitmap@mascara)
  2455                           	line	27
  2456                           	
  2457  0545                     l5462:	
  2458  0545  3001               	movlw	(01h)
  2459  0546  00B9               	movwf	(??_DesenharBitmap+0)+0
  2460  0547  0839               	movf	(??_DesenharBitmap+0)+0,w
  2461  0548  07C2               	addwf	(DesenharBitmap@bits),f
  2462                           	
  2463  0549                     l5464:	
  2464  0549  3008               	movlw	(08h)
  2465  054A  0242               	subwf	(DesenharBitmap@bits),w
  2466  054B  1C03               	skipc
  2467  054C  2D4E               	goto	u3571
  2468  054D  2D4F               	goto	u3570
  2469  054E                     u3571:
  2470  054E  2D05               	goto	l5448
  2471  054F                     u3570:
  2472  054F  2D50               	goto	l5466
  2473                           	
  2474  0550                     l2184:	
  2475                           	line	34
  2476                           	
  2477  0550                     l5466:	
  2478                           ;bitmap.c: 33: }
  2479                           ;bitmap.c: 34: bitmap++;
  2480  0550  3001               	movlw	low(01h)
  2481  0551  07B2               	addwf	(DesenharBitmap@bitmap),f
  2482  0552  1803               	skipnc
  2483  0553  0AB3               	incf	(DesenharBitmap@bitmap+1),f
  2484  0554  3000               	movlw	high(01h)
  2485  0555  07B3               	addwf	(DesenharBitmap@bitmap+1),f
  2486                           	line	24
  2487                           	
  2488  0556                     l5468:	
  2489  0556  3001               	movlw	(01h)
  2490  0557  00B9               	movwf	(??_DesenharBitmap+0)+0
  2491  0558  0839               	movf	(??_DesenharBitmap+0)+0,w
  2492  0559  07BE               	addwf	(DesenharBitmap@largura),f
  2493  055A  2D5B               	goto	l5470
  2494                           	
  2495  055B                     l2181:	
  2496                           	
  2497  055B                     l5470:	
  2498  055B  0838               	movf	(DesenharBitmap@largura_bytes),w
  2499  055C  023E               	subwf	(DesenharBitmap@largura),w
  2500  055D  1C03               	skipc
  2501  055E  2D60               	goto	u3581
  2502  055F  2D61               	goto	u3580
  2503  0560                     u3581:
  2504  0560  2CF8               	goto	l5442
  2505  0561                     u3580:
  2506  0561  2D62               	goto	l5472
  2507                           	
  2508  0562                     l2189:	
  2509                           	line	36
  2510                           	
  2511  0562                     l5472:	
  2512                           ;bitmap.c: 35: }
  2513                           ;bitmap.c: 36: x++;
  2514  0562  3001               	movlw	(01h)
  2515  0563  00B9               	movwf	(??_DesenharBitmap+0)+0
  2516  0564  0839               	movf	(??_DesenharBitmap+0)+0,w
  2517  0565  07B4               	addwf	(DesenharBitmap@x),f
  2518                           	line	21
  2519  0566  3001               	movlw	(01h)
  2520  0567  00B9               	movwf	(??_DesenharBitmap+0)+0
  2521  0568  0839               	movf	(??_DesenharBitmap+0)+0,w
  2522  0569  07BD               	addwf	(DesenharBitmap@altura),f
  2523  056A  2D6B               	goto	l5474
  2524                           	
  2525  056B                     l2179:	
  2526                           	
  2527  056B                     l5474:	
  2528  056B  0837               	movf	(DesenharBitmap@altura_px),w
  2529  056C  023D               	subwf	(DesenharBitmap@altura),w
  2530  056D  1C03               	skipc
  2531  056E  2D70               	goto	u3591
  2532  056F  2D71               	goto	u3590
  2533  0570                     u3591:
  2534  0570  2CF2               	goto	l5438
  2535  0571                     u3590:
  2536  0571  2D72               	goto	l2191
  2537                           	
  2538  0572                     l2190:	
  2539                           	line	38
  2540                           	
  2541  0572                     l2191:	
  2542  0572  0008               	return
  2543                           	opt stack 0
  2544                           GLOBAL	__end_of_DesenharBitmap
  2545  0573                     	__end_of_DesenharBitmap:
  2546 ;; =============== function _DesenharBitmap ends ============
  2547                           
  2548                           	signat	_DesenharBitmap,24696
  2549                           	global	_EscreveCaractere
  2550                           psect	text653,local,class=CODE,delta=2
  2551                           global __ptext653
  2552  06A2                     __ptext653:
  2553                           
  2554 ;; *************** function _EscreveCaractere *****************
  2555 ;; Defined at:
  2556 ;;		line 98 in file "C:\OD\OneDrive\Pessoal\Projetos para o GitHub\LCD Gráfico\recursos_texto.c"
  2557 ;; Parameters:    Size  Location     Type
  2558 ;;  caractere       1    wreg     unsigned char 
  2559 ;;  x               1   18[BANK0 ] unsigned char 
  2560 ;;  y               1   19[BANK0 ] unsigned char 
  2561 ;;  cor             1   20[BANK0 ] unsigned char 
  2562 ;; Auto vars:     Size  Location     Type
  2563 ;;  caractere       1   31[BANK0 ] unsigned char 
  2564 ;;  end_alfa        2   29[BANK0 ] unsigned int 
  2565 ;;  y_aux           1   28[BANK0 ] unsigned char 
  2566 ;;  x_aux           1   27[BANK0 ] unsigned char 
  2567 ;;  mascara         1   26[BANK0 ] unsigned char 
  2568 ;;  ponto           1   25[BANK0 ] unsigned char 
  2569 ;; Return value:  Size  Location     Type
  2570 ;;		None               void
  2571 ;; Registers used:
  2572 ;;		wreg, fsr0l, fsr0h, status,2, status,0, btemp+1, pclath, cstack
  2573 ;; Tracked objects:
  2574 ;;		On entry : 0/0
  2575 ;;		On exit  : 0/0
  2576 ;;		Unchanged: 0/0
  2577 ;; Data sizes:     COMMON   BANK0   BANK1   BANK3   BANK2
  2578 ;;      Params:         0       3       0       0       0
  2579 ;;      Locals:         0       9       0       0       0
  2580 ;;      Temps:          0       2       0       0       0
  2581 ;;      Totals:         0      14       0       0       0
  2582 ;;Total ram usage:       14 bytes
  2583 ;; Hardware stack levels used:    1
  2584 ;; Hardware stack levels required when called:    5
  2585 ;; This function calls:
  2586 ;;		___wmul
  2587 ;;		_Ponto
  2588 ;; This function is called by:
  2589 ;;		_EscreveFrase
  2590 ;;		_EscreveVariavel
  2591 ;; This function uses a non-reentrant model
  2592 ;;
  2593                           psect	text653
  2594                           	file	"C:\OD\OneDrive\Pessoal\Projetos para o GitHub\LCD Gráfico\recursos_texto.c"
  2595                           	line	98
  2596                           	global	__size_of_EscreveCaractere
  2597  015E                     	__size_of_EscreveCaractere	equ	__end_of_EscreveCaractere-_EscreveCaractere
  2598                           	
  2599  06A2                     _EscreveCaractere:	
  2600                           	opt	stack 1
  2601                           ; Regs used in _EscreveCaractere: [wreg-fsr0h+status,2+status,0+btemp+1+pclath+cstack]
  2602                           ;EscreveCaractere@caractere stored from wreg
  2603                           	line	105
  2604  06A2  1283               	bcf	status, 5	;RP0=0, select bank0
  2605  06A3  1303               	bcf	status, 6	;RP1=0, select bank0
  2606  06A4  00BF               	movwf	(EscreveCaractere@caractere)
  2607                           	
  2608  06A5                     l5366:	
  2609                           ;recursos_texto.c: 99: unsigned char ponto;
  2610                           ;recursos_texto.c: 100: unsigned char mascara;
  2611                           ;recursos_texto.c: 101: unsigned char x_aux, y_aux;
  2612                           ;recursos_texto.c: 102: unsigned int end_alfa;
  2613                           ;recursos_texto.c: 105: if(caractere >= '0' && caractere <= '9')
  2614  06A5  3030               	movlw	(030h)
  2615  06A6  023F               	subwf	(EscreveCaractere@caractere),w
  2616  06A7  1C03               	skipc
  2617  06A8  2EAA               	goto	u3461
  2618  06A9  2EAB               	goto	u3460
  2619  06AA                     u3461:
  2620  06AA  2ECC               	goto	l5372
  2621  06AB                     u3460:
  2622                           	
  2623  06AB                     l5368:	
  2624  06AB  303A               	movlw	(03Ah)
  2625  06AC  023F               	subwf	(EscreveCaractere@caractere),w
  2626  06AD  1803               	skipnc
  2627  06AE  2EB0               	goto	u3471
  2628  06AF  2EB1               	goto	u3470
  2629  06B0                     u3471:
  2630  06B0  2ECC               	goto	l5372
  2631  06B1                     u3470:
  2632                           	line	106
  2633                           	
  2634  06B1                     l5370:	
  2635                           ;recursos_texto.c: 106: end_alfa = ((caractere - 48) * 5) + 260;
  2636  06B1  083F               	movf	(EscreveCaractere@caractere),w
  2637  06B2  3ED0               	addlw	low(-48)
  2638  06B3  00F0               	movwf	(?___wmul)
  2639  06B4  30FF               	movlw	high(-48)
  2640  06B5  1803               	skipnc
  2641  06B6  3000               	movlw	(high(-48)+1)&0ffh
  2642  06B7  00F1               	movwf	((?___wmul))+1
  2643  06B8  3005               	movlw	low(05h)
  2644  06B9  00F2               	movwf	0+(?___wmul)+02h
  2645  06BA  3000               	movlw	high(05h)
  2646  06BB  00F3               	movwf	(0+(?___wmul)+02h)+1
  2647  06BC  120A  118A  2083   	fcall	___wmul
              120A  118A         
  2648  06C1  0870               	movf	(0+(?___wmul)),w
  2649  06C2  3E04               	addlw	low(0104h)
  2650  06C3  1283               	bcf	status, 5	;RP0=0, select bank0
  2651  06C4  1303               	bcf	status, 6	;RP1=0, select bank0
  2652  06C5  00BD               	movwf	(EscreveCaractere@end_alfa)
  2653  06C6  0871               	movf	(1+(?___wmul)),w
  2654  06C7  1803               	skipnc
  2655  06C8  3E01               	addlw	1
  2656  06C9  3E01               	addlw	high(0104h)
  2657  06CA  00BE               	movwf	1+(EscreveCaractere@end_alfa)
  2658  06CB  2F75               	goto	l5410
  2659                           	line	107
  2660                           	
  2661  06CC                     l165:	
  2662                           	
  2663  06CC                     l5372:	
  2664                           ;recursos_texto.c: 107: else if(caractere >= 'A' && caractere <= 'Z')
  2665  06CC  3041               	movlw	(041h)
  2666  06CD  023F               	subwf	(EscreveCaractere@caractere),w
  2667  06CE  1C03               	skipc
  2668  06CF  2ED1               	goto	u3481
  2669  06D0  2ED2               	goto	u3480
  2670  06D1                     u3481:
  2671  06D1  2EF1               	goto	l5378
  2672  06D2                     u3480:
  2673                           	
  2674  06D2                     l5374:	
  2675  06D2  305B               	movlw	(05Bh)
  2676  06D3  023F               	subwf	(EscreveCaractere@caractere),w
  2677  06D4  1803               	skipnc
  2678  06D5  2ED7               	goto	u3491
  2679  06D6  2ED8               	goto	u3490
  2680  06D7                     u3491:
  2681  06D7  2EF1               	goto	l5378
  2682  06D8                     u3490:
  2683                           	line	108
  2684                           	
  2685  06D8                     l5376:	
  2686                           ;recursos_texto.c: 108: end_alfa = (caractere - 'A') * 5;
  2687  06D8  083F               	movf	(EscreveCaractere@caractere),w
  2688  06D9  3EBF               	addlw	low(0FFBFh)
  2689  06DA  00F0               	movwf	(?___wmul)
  2690  06DB  30FF               	movlw	high(0FFBFh)
  2691  06DC  1803               	skipnc
  2692  06DD  3000               	movlw	(high(0FFBFh)+1)&0ffh
  2693  06DE  00F1               	movwf	((?___wmul))+1
  2694  06DF  3005               	movlw	low(05h)
  2695  06E0  00F2               	movwf	0+(?___wmul)+02h
  2696  06E1  3000               	movlw	high(05h)
  2697  06E2  00F3               	movwf	(0+(?___wmul)+02h)+1
  2698  06E3  120A  118A  2083   	fcall	___wmul
              120A  118A         
  2699  06E8  0871               	movf	(1+(?___wmul)),w
  2700  06E9  1283               	bcf	status, 5	;RP0=0, select bank0
  2701  06EA  1303               	bcf	status, 6	;RP1=0, select bank0
  2702  06EB  01BE               	clrf	(EscreveCaractere@end_alfa+1)
  2703  06EC  07BE               	addwf	(EscreveCaractere@end_alfa+1)
  2704  06ED  0870               	movf	(0+(?___wmul)),w
  2705  06EE  01BD               	clrf	(EscreveCaractere@end_alfa)
  2706  06EF  07BD               	addwf	(EscreveCaractere@end_alfa)
  2707                           
  2708  06F0  2F75               	goto	l5410
  2709                           	line	109
  2710                           	
  2711  06F1                     l167:	
  2712                           	
  2713  06F1                     l5378:	
  2714                           ;recursos_texto.c: 109: else if(caractere >= 'a' && caractere <= 'z')
  2715  06F1  3061               	movlw	(061h)
  2716  06F2  023F               	subwf	(EscreveCaractere@caractere),w
  2717  06F3  1C03               	skipc
  2718  06F4  2EF6               	goto	u3501
  2719  06F5  2EF7               	goto	u3500
  2720  06F6                     u3501:
  2721  06F6  2F4F               	goto	l5408
  2722  06F7                     u3500:
  2723                           	
  2724  06F7                     l5380:	
  2725  06F7  307B               	movlw	(07Bh)
  2726  06F8  023F               	subwf	(EscreveCaractere@caractere),w
  2727  06F9  1803               	skipnc
  2728  06FA  2EFC               	goto	u3511
  2729  06FB  2EFD               	goto	u3510
  2730  06FC                     u3511:
  2731  06FC  2F4F               	goto	l5408
  2732  06FD                     u3510:
  2733                           	line	110
  2734                           	
  2735  06FD                     l5382:	
  2736                           ;recursos_texto.c: 110: end_alfa = ((caractere - 'a') + 26 ) * 5;
  2737  06FD  083F               	movf	(EscreveCaractere@caractere),w
  2738  06FE  3EB9               	addlw	low(0FFB9h)
  2739  06FF  00F0               	movwf	(?___wmul)
  2740  0700  30FF               	movlw	high(0FFB9h)
  2741  0701  1803               	skipnc
  2742  0702  3000               	movlw	(high(0FFB9h)+1)&0ffh
  2743  0703  00F1               	movwf	((?___wmul))+1
  2744  0704  3005               	movlw	low(05h)
  2745  0705  00F2               	movwf	0+(?___wmul)+02h
  2746  0706  3000               	movlw	high(05h)
  2747  0707  00F3               	movwf	(0+(?___wmul)+02h)+1
  2748  0708  120A  118A  2083   	fcall	___wmul
              120A  118A         
  2749  070D  0871               	movf	(1+(?___wmul)),w
  2750  070E  1283               	bcf	status, 5	;RP0=0, select bank0
  2751  070F  1303               	bcf	status, 6	;RP1=0, select bank0
  2752  0710  01BE               	clrf	(EscreveCaractere@end_alfa+1)
  2753  0711  07BE               	addwf	(EscreveCaractere@end_alfa+1)
  2754  0712  0870               	movf	(0+(?___wmul)),w
  2755  0713  01BD               	clrf	(EscreveCaractere@end_alfa)
  2756  0714  07BD               	addwf	(EscreveCaractere@end_alfa)
  2757                           
  2758  0715  2F75               	goto	l5410
  2759                           	line	111
  2760                           	
  2761  0716                     l169:	
  2762                           	line	113
  2763                           ;recursos_texto.c: 111: else
  2764                           ;recursos_texto.c: 112: {
  2765                           ;recursos_texto.c: 113: switch(caractere)
  2766  0716  2F4F               	goto	l5408
  2767                           	line	115
  2768                           ;recursos_texto.c: 114: {
  2769                           ;recursos_texto.c: 115: case '?':
  2770                           	
  2771  0717                     l172:	
  2772                           	line	116
  2773                           	
  2774  0717                     l5384:	
  2775                           ;recursos_texto.c: 116: end_alfa = 310;
  2776  0717  3036               	movlw	low(0136h)
  2777  0718  00BD               	movwf	(EscreveCaractere@end_alfa)
  2778  0719  3001               	movlw	high(0136h)
  2779  071A  00BE               	movwf	((EscreveCaractere@end_alfa))+1
  2780                           	line	117
  2781                           ;recursos_texto.c: 117: break;
  2782  071B  2F75               	goto	l5410
  2783                           	line	118
  2784                           ;recursos_texto.c: 118: case '!':
  2785                           	
  2786  071C                     l174:	
  2787                           	line	119
  2788                           	
  2789  071C                     l5386:	
  2790                           ;recursos_texto.c: 119: end_alfa = 315;
  2791  071C  303B               	movlw	low(013Bh)
  2792  071D  00BD               	movwf	(EscreveCaractere@end_alfa)
  2793  071E  3001               	movlw	high(013Bh)
  2794  071F  00BE               	movwf	((EscreveCaractere@end_alfa))+1
  2795                           	line	120
  2796                           ;recursos_texto.c: 120: break;
  2797  0720  2F75               	goto	l5410
  2798                           	line	121
  2799                           ;recursos_texto.c: 121: case '.':
  2800                           	
  2801  0721                     l175:	
  2802                           	line	122
  2803                           	
  2804  0721                     l5388:	
  2805                           ;recursos_texto.c: 122: end_alfa = 320;
  2806  0721  3040               	movlw	low(0140h)
  2807  0722  00BD               	movwf	(EscreveCaractere@end_alfa)
  2808  0723  3001               	movlw	high(0140h)
  2809  0724  00BE               	movwf	((EscreveCaractere@end_alfa))+1
  2810                           	line	123
  2811                           ;recursos_texto.c: 123: break;
  2812  0725  2F75               	goto	l5410
  2813                           	line	124
  2814                           ;recursos_texto.c: 124: case ',':
  2815                           	
  2816  0726                     l176:	
  2817                           	line	125
  2818                           	
  2819  0726                     l5390:	
  2820                           ;recursos_texto.c: 125: end_alfa = 325;
  2821  0726  3045               	movlw	low(0145h)
  2822  0727  00BD               	movwf	(EscreveCaractere@end_alfa)
  2823  0728  3001               	movlw	high(0145h)
  2824  0729  00BE               	movwf	((EscreveCaractere@end_alfa))+1
  2825                           	line	126
  2826                           ;recursos_texto.c: 126: break;
  2827  072A  2F75               	goto	l5410
  2828                           	line	127
  2829                           ;recursos_texto.c: 127: case ':':
  2830                           	
  2831  072B                     l177:	
  2832                           	line	128
  2833                           	
  2834  072B                     l5392:	
  2835                           ;recursos_texto.c: 128: end_alfa = 330;
  2836  072B  304A               	movlw	low(014Ah)
  2837  072C  00BD               	movwf	(EscreveCaractere@end_alfa)
  2838  072D  3001               	movlw	high(014Ah)
  2839  072E  00BE               	movwf	((EscreveCaractere@end_alfa))+1
  2840                           	line	129
  2841                           ;recursos_texto.c: 129: break;
  2842  072F  2F75               	goto	l5410
  2843                           	line	130
  2844                           ;recursos_texto.c: 130: case '#':
  2845                           	
  2846  0730                     l178:	
  2847                           	line	131
  2848                           	
  2849  0730                     l5394:	
  2850                           ;recursos_texto.c: 131: end_alfa = 335;
  2851  0730  304F               	movlw	low(014Fh)
  2852  0731  00BD               	movwf	(EscreveCaractere@end_alfa)
  2853  0732  3001               	movlw	high(014Fh)
  2854  0733  00BE               	movwf	((EscreveCaractere@end_alfa))+1
  2855                           	line	132
  2856                           ;recursos_texto.c: 132: break;
  2857  0734  2F75               	goto	l5410
  2858                           	line	133
  2859                           ;recursos_texto.c: 133: case '*':
  2860                           	
  2861  0735                     l179:	
  2862                           	line	134
  2863                           	
  2864  0735                     l5396:	
  2865                           ;recursos_texto.c: 134: end_alfa = 340;
  2866  0735  3054               	movlw	low(0154h)
  2867  0736  00BD               	movwf	(EscreveCaractere@end_alfa)
  2868  0737  3001               	movlw	high(0154h)
  2869  0738  00BE               	movwf	((EscreveCaractere@end_alfa))+1
  2870                           	line	135
  2871                           ;recursos_texto.c: 135: break;
  2872  0739  2F75               	goto	l5410
  2873                           	line	136
  2874                           ;recursos_texto.c: 136: case ' ':
  2875                           	
  2876  073A                     l180:	
  2877                           	line	137
  2878                           	
  2879  073A                     l5398:	
  2880                           ;recursos_texto.c: 137: end_alfa = 345;
  2881  073A  3059               	movlw	low(0159h)
  2882  073B  00BD               	movwf	(EscreveCaractere@end_alfa)
  2883  073C  3001               	movlw	high(0159h)
  2884  073D  00BE               	movwf	((EscreveCaractere@end_alfa))+1
  2885                           	line	138
  2886                           ;recursos_texto.c: 138: break;
  2887  073E  2F75               	goto	l5410
  2888                           	line	139
  2889                           ;recursos_texto.c: 139: case '_':
  2890                           	
  2891  073F                     l181:	
  2892                           	line	140
  2893                           	
  2894  073F                     l5400:	
  2895                           ;recursos_texto.c: 140: end_alfa = 350;
  2896  073F  305E               	movlw	low(015Eh)
  2897  0740  00BD               	movwf	(EscreveCaractere@end_alfa)
  2898  0741  3001               	movlw	high(015Eh)
  2899  0742  00BE               	movwf	((EscreveCaractere@end_alfa))+1
  2900                           	line	141
  2901                           ;recursos_texto.c: 141: break;
  2902  0743  2F75               	goto	l5410
  2903                           	line	142
  2904                           ;recursos_texto.c: 142: case '/':
  2905                           	
  2906  0744                     l182:	
  2907                           	line	143
  2908                           	
  2909  0744                     l5402:	
  2910                           ;recursos_texto.c: 143: end_alfa = 355;
  2911  0744  3063               	movlw	low(0163h)
  2912  0745  00BD               	movwf	(EscreveCaractere@end_alfa)
  2913  0746  3001               	movlw	high(0163h)
  2914  0747  00BE               	movwf	((EscreveCaractere@end_alfa))+1
  2915                           	line	144
  2916                           ;recursos_texto.c: 144: break;
  2917  0748  2F75               	goto	l5410
  2918                           	line	145
  2919                           ;recursos_texto.c: 145: case '%':
  2920                           	
  2921  0749                     l183:	
  2922                           	line	146
  2923                           	
  2924  0749                     l5404:	
  2925                           ;recursos_texto.c: 146: end_alfa = 360;
  2926  0749  3068               	movlw	low(0168h)
  2927  074A  00BD               	movwf	(EscreveCaractere@end_alfa)
  2928  074B  3001               	movlw	high(0168h)
  2929  074C  00BE               	movwf	((EscreveCaractere@end_alfa))+1
  2930                           	line	147
  2931                           ;recursos_texto.c: 147: break;
  2932  074D  2F75               	goto	l5410
  2933                           	line	148
  2934                           	
  2935  074E                     l5406:	
  2936                           ;recursos_texto.c: 148: }
  2937  074E  2F75               	goto	l5410
  2938                           	line	113
  2939                           	
  2940  074F                     l171:	
  2941                           	
  2942  074F                     l5408:	
  2943  074F  083F               	movf	(EscreveCaractere@caractere),w
  2944                           	; Switch size 1, requested type "space"
  2945                           ; Number of cases is 11, Range of values is 32 to 95
  2946                           ; switch strategies available:
  2947                           ; Name         Instructions Cycles
  2948                           ; simple_byte           34    18 (average)
  2949                           ; direct_byte          203    11 (fixed)
  2950                           ; jumptable            263     9 (fixed)
  2951                           ;	Chosen strategy is simple_byte
  2952                           
  2953                           	opt asmopt_off
  2954  0750  3A20               	xorlw	32^0	; case 32
  2955  0751  1903               	skipnz
  2956  0752  2F3A               	goto	l5398
  2957  0753  3A01               	xorlw	33^32	; case 33
  2958  0754  1903               	skipnz
  2959  0755  2F1C               	goto	l5386
  2960  0756  3A02               	xorlw	35^33	; case 35
  2961  0757  1903               	skipnz
  2962  0758  2F30               	goto	l5394
  2963  0759  3A06               	xorlw	37^35	; case 37
  2964  075A  1903               	skipnz
  2965  075B  2F49               	goto	l5404
  2966  075C  3A0F               	xorlw	42^37	; case 42
  2967  075D  1903               	skipnz
  2968  075E  2F35               	goto	l5396
  2969  075F  3A06               	xorlw	44^42	; case 44
  2970  0760  1903               	skipnz
  2971  0761  2F26               	goto	l5390
  2972  0762  3A02               	xorlw	46^44	; case 46
  2973  0763  1903               	skipnz
  2974  0764  2F21               	goto	l5388
  2975  0765  3A01               	xorlw	47^46	; case 47
  2976  0766  1903               	skipnz
  2977  0767  2F44               	goto	l5402
  2978  0768  3A15               	xorlw	58^47	; case 58
  2979  0769  1903               	skipnz
  2980  076A  2F2B               	goto	l5392
  2981  076B  3A05               	xorlw	63^58	; case 63
  2982  076C  1903               	skipnz
  2983  076D  2F17               	goto	l5384
  2984  076E  3A60               	xorlw	95^63	; case 95
  2985  076F  1903               	skipnz
  2986  0770  2F3F               	goto	l5400
  2987  0771  2F75               	goto	l5410
  2988                           	opt asmopt_on
  2989                           
  2990                           	line	148
  2991                           	
  2992  0772                     l173:	
  2993  0772  2F75               	goto	l5410
  2994                           	line	149
  2995                           	
  2996  0773                     l170:	
  2997  0773  2F75               	goto	l5410
  2998                           	
  2999  0774                     l168:	
  3000  0774  2F75               	goto	l5410
  3001                           	
  3002  0775                     l166:	
  3003                           	line	151
  3004                           	
  3005  0775                     l5410:	
  3006                           ;recursos_texto.c: 149: }
  3007                           ;recursos_texto.c: 151: for(y_aux = y; y_aux < (y + 5); y_aux++)
  3008  0775  0833               	movf	(EscreveCaractere@y),w
  3009  0776  00B5               	movwf	(??_EscreveCaractere+0)+0
  3010  0777  0835               	movf	(??_EscreveCaractere+0)+0,w
  3011  0778  00BC               	movwf	(EscreveCaractere@y_aux)
  3012  0779  2FEC               	goto	l5434
  3013                           	line	152
  3014                           	
  3015  077A                     l185:	
  3016                           	line	153
  3017                           	
  3018  077A                     l5412:	
  3019                           ;recursos_texto.c: 152: {
  3020                           ;recursos_texto.c: 153: mascara=0b10000000;
  3021  077A  3080               	movlw	(080h)
  3022  077B  1283               	bcf	status, 5	;RP0=0, select bank0
  3023  077C  1303               	bcf	status, 6	;RP1=0, select bank0
  3024  077D  00B5               	movwf	(??_EscreveCaractere+0)+0
  3025  077E  0835               	movf	(??_EscreveCaractere+0)+0,w
  3026  077F  00BA               	movwf	(EscreveCaractere@mascara)
  3027                           	line	154
  3028                           ;recursos_texto.c: 154: for(x_aux = x; x_aux < (x + 8); x_aux++)
  3029  0780  0832               	movf	(EscreveCaractere@x),w
  3030  0781  00B5               	movwf	(??_EscreveCaractere+0)+0
  3031  0782  0835               	movf	(??_EscreveCaractere+0)+0,w
  3032  0783  00BB               	movwf	(EscreveCaractere@x_aux)
  3033  0784  2FCC               	goto	l5428
  3034                           	line	155
  3035                           	
  3036  0785                     l187:	
  3037                           	line	156
  3038                           	
  3039  0785                     l5414:	
  3040                           ;recursos_texto.c: 155: {
  3041                           ;recursos_texto.c: 156: ponto = alfabeto[end_alfa] & mascara;
  3042  0785  309D               	movlw	high(_alfabeto|8000h)
  3043  0786  1283               	bcf	status, 5	;RP0=0, select bank0
  3044  0787  1303               	bcf	status, 6	;RP1=0, select bank0
  3045  0788  073E               	addwf	(EscreveCaractere@end_alfa+1),w
  3046  0789  00FF               	movwf	btemp+1
  3047  078A  3012               	movlw	low(_alfabeto|8000h)
  3048  078B  073D               	addwf	(EscreveCaractere@end_alfa),w
  3049  078C  0084               	movwf	fsr0
  3050  078D  1803               	skipnc
  3051  078E  0AFF               	incf	btemp+1,f
  3052  078F  160A  158A  2500   	fcall	stringtab
              120A  118A         
  3053  0794  053A               	andwf	(EscreveCaractere@mascara),w
  3054  0795  00B5               	movwf	(??_EscreveCaractere+0)+0
  3055  0796  0835               	movf	(??_EscreveCaractere+0)+0,w
  3056  0797  00B9               	movwf	(EscreveCaractere@ponto)
  3057                           	line	157
  3058                           	
  3059  0798                     l5416:	
  3060                           ;recursos_texto.c: 157: Ponto(x_aux, y_aux, cor ? ponto : !ponto);
  3061  0798  08B4               	movf	(EscreveCaractere@cor),f
  3062  0799  1D03               	skipz
  3063  079A  2F9C               	goto	u3521
  3064  079B  2F9D               	goto	u3520
  3065  079C                     u3521:
  3066  079C  2FA8               	goto	l5420
  3067  079D                     u3520:
  3068                           	
  3069  079D                     l5418:	
  3070  079D  08B9               	movf	(EscreveCaractere@ponto)
  3071  079E  3000               	movlw	0
  3072  079F  1903               	skipnz
  3073  07A0  3001               	movlw	1
  3074  07A1  00B5               	movwf	(??_EscreveCaractere+0)+0
  3075  07A2  01B6               	clrf	(??_EscreveCaractere+0)+0+1
  3076  07A3  0835               	movf	0+(??_EscreveCaractere+0)+0,w
  3077  07A4  00B7               	movwf	(_EscreveCaractere$282)
  3078  07A5  0836               	movf	1+(??_EscreveCaractere+0)+0,w
  3079  07A6  00B8               	movwf	(_EscreveCaractere$282+1)
  3080  07A7  2FB0               	goto	l5422
  3081                           	
  3082  07A8                     l189:	
  3083                           	
  3084  07A8                     l5420:	
  3085  07A8  0839               	movf	(EscreveCaractere@ponto),w
  3086  07A9  00B5               	movwf	(??_EscreveCaractere+0)+0
  3087  07AA  01B6               	clrf	(??_EscreveCaractere+0)+0+1
  3088  07AB  0835               	movf	0+(??_EscreveCaractere+0)+0,w
  3089  07AC  00B7               	movwf	(_EscreveCaractere$282)
  3090  07AD  0836               	movf	1+(??_EscreveCaractere+0)+0,w
  3091  07AE  00B8               	movwf	(_EscreveCaractere$282+1)
  3092  07AF  2FB0               	goto	l5422
  3093                           	
  3094  07B0                     l191:	
  3095                           	
  3096  07B0                     l5422:	
  3097  07B0  083C               	movf	(EscreveCaractere@y_aux),w
  3098  07B1  00B5               	movwf	(??_EscreveCaractere+0)+0
  3099  07B2  0835               	movf	(??_EscreveCaractere+0)+0,w
  3100  07B3  00AA               	movwf	(?_Ponto)
  3101  07B4  0837               	movf	(_EscreveCaractere$282),w
  3102  07B5  00B6               	movwf	(??_EscreveCaractere+1)+0
  3103  07B6  0836               	movf	(??_EscreveCaractere+1)+0,w
  3104  07B7  00AB               	movwf	0+(?_Ponto)+01h
  3105  07B8  083B               	movf	(EscreveCaractere@x_aux),w
  3106  07B9  120A  118A  23FE   	fcall	_Ponto
              120A  118A         
  3107                           	line	158
  3108                           	
  3109  07BE                     l5424:	
  3110                           ;recursos_texto.c: 158: mascara = mascara >> 1;
  3111  07BE  1283               	bcf	status, 5	;RP0=0, select bank0
  3112  07BF  1303               	bcf	status, 6	;RP1=0, select bank0
  3113  07C0  083A               	movf	(EscreveCaractere@mascara),w
  3114  07C1  00B5               	movwf	(??_EscreveCaractere+0)+0
  3115  07C2  1003               	clrc
  3116  07C3  0C35               	rrf	(??_EscreveCaractere+0)+0,w
  3117  07C4  00B6               	movwf	(??_EscreveCaractere+1)+0
  3118  07C5  0836               	movf	(??_EscreveCaractere+1)+0,w
  3119  07C6  00BA               	movwf	(EscreveCaractere@mascara)
  3120                           	line	154
  3121                           	
  3122  07C7                     l5426:	
  3123  07C7  3001               	movlw	(01h)
  3124  07C8  00B5               	movwf	(??_EscreveCaractere+0)+0
  3125  07C9  0835               	movf	(??_EscreveCaractere+0)+0,w
  3126  07CA  07BB               	addwf	(EscreveCaractere@x_aux),f
  3127  07CB  2FCC               	goto	l5428
  3128                           	
  3129  07CC                     l186:	
  3130                           	
  3131  07CC                     l5428:	
  3132  07CC  0832               	movf	(EscreveCaractere@x),w
  3133  07CD  3E08               	addlw	low(08h)
  3134  07CE  00B5               	movwf	(??_EscreveCaractere+0)+0
  3135  07CF  3000               	movlw	high(08h)
  3136  07D0  1803               	skipnc
  3137  07D1  3001               	movlw	(high(08h)+1)&0ffh
  3138  07D2  00B6               	movwf	((??_EscreveCaractere+0)+0)+1
  3139  07D3  0836               	movf	1+(??_EscreveCaractere+0)+0,w
  3140  07D4  3A80               	xorlw	80h
  3141  07D5  3C80               	sublw	080h
  3142  07D6  1D03               	skipz
  3143  07D7  2FDA               	goto	u3535
  3144  07D8  0835               	movf	0+(??_EscreveCaractere+0)+0,w
  3145  07D9  023B               	subwf	(EscreveCaractere@x_aux),w
  3146  07DA                     u3535:
  3147                           
  3148  07DA  1C03               	skipc
  3149  07DB  2FDD               	goto	u3531
  3150  07DC  2FDE               	goto	u3530
  3151  07DD                     u3531:
  3152  07DD  2F85               	goto	l5414
  3153  07DE                     u3530:
  3154  07DE  2FDF               	goto	l5430
  3155                           	
  3156  07DF                     l192:	
  3157                           	line	160
  3158                           	
  3159  07DF                     l5430:	
  3160                           ;recursos_texto.c: 159: }
  3161                           ;recursos_texto.c: 160: end_alfa++;
  3162  07DF  3001               	movlw	low(01h)
  3163  07E0  1283               	bcf	status, 5	;RP0=0, select bank0
  3164  07E1  1303               	bcf	status, 6	;RP1=0, select bank0
  3165  07E2  07BD               	addwf	(EscreveCaractere@end_alfa),f
  3166  07E3  1803               	skipnc
  3167  07E4  0ABE               	incf	(EscreveCaractere@end_alfa+1),f
  3168  07E5  3000               	movlw	high(01h)
  3169  07E6  07BE               	addwf	(EscreveCaractere@end_alfa+1),f
  3170                           	line	151
  3171                           	
  3172  07E7                     l5432:	
  3173  07E7  3001               	movlw	(01h)
  3174  07E8  00B5               	movwf	(??_EscreveCaractere+0)+0
  3175  07E9  0835               	movf	(??_EscreveCaractere+0)+0,w
  3176  07EA  07BC               	addwf	(EscreveCaractere@y_aux),f
  3177  07EB  2FEC               	goto	l5434
  3178                           	
  3179  07EC                     l184:	
  3180                           	
  3181  07EC                     l5434:	
  3182  07EC  0833               	movf	(EscreveCaractere@y),w
  3183  07ED  3E05               	addlw	low(05h)
  3184  07EE  00B5               	movwf	(??_EscreveCaractere+0)+0
  3185  07EF  3000               	movlw	high(05h)
  3186  07F0  1803               	skipnc
  3187  07F1  3001               	movlw	(high(05h)+1)&0ffh
  3188  07F2  00B6               	movwf	((??_EscreveCaractere+0)+0)+1
  3189  07F3  0836               	movf	1+(??_EscreveCaractere+0)+0,w
  3190  07F4  3A80               	xorlw	80h
  3191  07F5  3C80               	sublw	080h
  3192  07F6  1D03               	skipz
  3193  07F7  2FFA               	goto	u3545
  3194  07F8  0835               	movf	0+(??_EscreveCaractere+0)+0,w
  3195  07F9  023C               	subwf	(EscreveCaractere@y_aux),w
  3196  07FA                     u3545:
  3197                           
  3198  07FA  1C03               	skipc
  3199  07FB  2FFD               	goto	u3541
  3200  07FC  2FFE               	goto	u3540
  3201  07FD                     u3541:
  3202  07FD  2F7A               	goto	l5412
  3203  07FE                     u3540:
  3204  07FE  2FFF               	goto	l194
  3205                           	
  3206  07FF                     l193:	
  3207                           	line	162
  3208                           	
  3209  07FF                     l194:	
  3210  07FF  0008               	return
  3211                           	opt stack 0
  3212                           GLOBAL	__end_of_EscreveCaractere
  3213  0800                     	__end_of_EscreveCaractere:
  3214 ;; =============== function _EscreveCaractere ends ============
  3215                           
  3216                           	signat	_EscreveCaractere,16504
  3217                           	global	_InicializarDisplay
  3218                           psect	text654,local,class=CODE,delta=2
  3219                           global __ptext654
  3220  0344                     __ptext654:
  3221                           
  3222 ;; *************** function _InicializarDisplay *****************
  3223 ;; Defined at:
  3224 ;;		line 89 in file "C:\OD\OneDrive\Pessoal\Projetos para o GitHub\LCD Gráfico\lcd_grafico.c"
  3225 ;; Parameters:    Size  Location     Type
  3226 ;;  pinos          20    0[BANK0 ] struct .
  3227 ;; Auto vars:     Size  Location     Type
  3228 ;;		None
  3229 ;; Return value:  Size  Location     Type
  3230 ;;		None               void
  3231 ;; Registers used:
  3232 ;;		wreg, fsr0l, fsr0h, status,2, status,0, pclath, cstack
  3233 ;; Tracked objects:
  3234 ;;		On entry : 0/0
  3235 ;;		On exit  : 0/0
  3236 ;;		Unchanged: 0/0
  3237 ;; Data sizes:     COMMON   BANK0   BANK1   BANK3   BANK2
  3238 ;;      Params:         0      20       0       0       0
  3239 ;;      Locals:         0       0       0       0       0
  3240 ;;      Temps:          0       4       0       0       0
  3241 ;;      Totals:         0      24       0       0       0
  3242 ;;Total ram usage:       24 bytes
  3243 ;; Hardware stack levels used:    1
  3244 ;; Hardware stack levels required when called:    4
  3245 ;; This function calls:
  3246 ;;		_RST
  3247 ;;		_RW
  3248 ;;		_delay
  3249 ;;		_LigarDisplay
  3250 ;;		_LimparDisplay
  3251 ;; This function is called by:
  3252 ;;		_main
  3253 ;; This function uses a non-reentrant model
  3254 ;;
  3255                           psect	text654
  3256                           	file	"C:\OD\OneDrive\Pessoal\Projetos para o GitHub\LCD Gráfico\lcd_grafico.c"
  3257                           	line	89
  3258                           	global	__size_of_InicializarDisplay
  3259  0047                     	__size_of_InicializarDisplay	equ	__end_of_InicializarDisplay-_InicializarDisplay
  3260                           	
  3261  0344                     _InicializarDisplay:	
  3262                           	opt	stack 3
  3263                           ; Regs used in _InicializarDisplay: [wreg-fsr0h+status,2+status,0+pclath+cstack]
  3264                           	line	90
  3265                           	
  3266  0344                     l5352:	
  3267                           ;lcd_grafico.c: 90: pinos_display = pinos;
  3268  0344  30A0               	movlw	(_pinos_display)&0ffh
  3269  0345  0084               	movwf	fsr0
  3270  0346  3020               	movlw	low(InicializarDisplay@pinos)
  3271  0347  1283               	bcf	status, 5	;RP0=0, select bank0
  3272  0348  1303               	bcf	status, 6	;RP1=0, select bank0
  3273  0349  00B4               	movwf	(??_InicializarDisplay+0)+0
  3274  034A  0804               	movf	fsr0,w
  3275  034B  00B5               	movwf	((??_InicializarDisplay+0)+0+1)
  3276  034C  3014               	movlw	20
  3277  034D  00B6               	movwf	((??_InicializarDisplay+0)+0+2)
  3278  034E                     u3450:
  3279  034E  0834               	movf	(??_InicializarDisplay+0)+0,w
  3280  034F  0084               	movwf	fsr0
  3281  0350  1383               	bcf	status, 7	;select IRP bank0
  3282                           	
  3283  0351  0800               	movf	indf,w
  3284  0352  00B7               	movwf	((??_InicializarDisplay+0)+0+3)
  3285  0353  0AB4               	incf	(??_InicializarDisplay+0)+0,f
  3286  0354  0835               	movf	((??_InicializarDisplay+0)+0+1),w
  3287  0355  0084               	movwf	fsr0
  3288                           	
  3289  0356  0837               	movf	((??_InicializarDisplay+0)+0+3),w
  3290  0357  0080               	movwf	indf
  3291  0358  0AB5               	incf	((??_InicializarDisplay+0)+0+1),f
  3292  0359  0BB6               	decfsz	((??_InicializarDisplay+0)+0+2),f
  3293  035A  2B4E               	goto	u3450
  3294                           	line	91
  3295                           	
  3296  035B                     l5354:	
  3297                           ;lcd_grafico.c: 91: RST(0);
  3298  035B  3000               	movlw	(0)
  3299  035C  120A  118A  2138   	fcall	_RST
              120A  118A         
  3300                           	line	92
  3301                           	
  3302  0361                     l5356:	
  3303                           ;lcd_grafico.c: 92: RW(0);
  3304  0361  3000               	movlw	(0)
  3305  0362  120A  118A  216D   	fcall	_RW
              120A  118A         
  3306                           	line	93
  3307                           ;lcd_grafico.c: 93: *pinos_display.latchDADOS.tris = 0x00;
  3308  0367  1683               	bsf	status, 5	;RP0=1, select bank1
  3309  0368  1303               	bcf	status, 6	;RP1=0, select bank1
  3310  0369  0833               	movf	(0+_pinos_display+013h)^080h,w
  3311  036A  0084               	movwf	fsr0
  3312  036B  1383               	bcf	status, 7	;select IRP bank0
  3313  036C  0180               	clrf	indf
  3314                           	line	94
  3315                           	
  3316  036D                     l5358:	
  3317                           ;lcd_grafico.c: 94: RST(1);
  3318  036D  3001               	movlw	(01h)
  3319  036E  120A  118A  2138   	fcall	_RST
              120A  118A         
  3320                           	line	95
  3321                           	
  3322  0373                     l5360:	
  3323                           ;lcd_grafico.c: 95: delay(1);
  3324  0373  3000               	movlw	0
  3325  0374  00F3               	movwf	(?_delay+3)
  3326  0375  3000               	movlw	0
  3327  0376  00F2               	movwf	(?_delay+2)
  3328  0377  3000               	movlw	0
  3329  0378  00F1               	movwf	(?_delay+1)
  3330  0379  3001               	movlw	01h
  3331  037A  00F0               	movwf	(?_delay)
  3332                           
  3333  037B  120A  118A  2105   	fcall	_delay
              120A  118A         
  3334                           	line	96
  3335                           	
  3336  0380                     l5362:	
  3337                           ;lcd_grafico.c: 96: LigarDisplay();
  3338  0380  120A  158A  279A   	fcall	_LigarDisplay
              120A  118A         
  3339                           	line	97
  3340                           	
  3341  0385                     l5364:	
  3342                           ;lcd_grafico.c: 97: LimparDisplay();
  3343  0385  120A  118A  22C0   	fcall	_LimparDisplay
              120A  118A         
  3344                           	line	98
  3345                           	
  3346  038A                     l63:	
  3347  038A  0008               	return
  3348                           	opt stack 0
  3349                           GLOBAL	__end_of_InicializarDisplay
  3350  038B                     	__end_of_InicializarDisplay:
  3351 ;; =============== function _InicializarDisplay ends ============
  3352                           
  3353                           	signat	_InicializarDisplay,4216
  3354                           	global	_Ponto
  3355                           psect	text655,local,class=CODE,delta=2
  3356                           global __ptext655
  3357  03FE                     __ptext655:
  3358                           
  3359 ;; *************** function _Ponto *****************
  3360 ;; Defined at:
  3361 ;;		line 36 in file "C:\OD\OneDrive\Pessoal\Projetos para o GitHub\LCD Gráfico\lcd_grafico.c"
  3362 ;; Parameters:    Size  Location     Type
  3363 ;;  x               1    wreg     unsigned char 
  3364 ;;  y               1   10[BANK0 ] unsigned char 
  3365 ;;  cor             1   11[BANK0 ] unsigned char 
  3366 ;; Auto vars:     Size  Location     Type
  3367 ;;  x               1   16[BANK0 ] unsigned char 
  3368 ;;  area            1   17[BANK0 ] unsigned char 
  3369 ;;  pagina          1   15[BANK0 ] unsigned char 
  3370 ;; Return value:  Size  Location     Type
  3371 ;;		None               void
  3372 ;; Registers used:
  3373 ;;		wreg, fsr0l, fsr0h, status,2, status,0, pclath, cstack
  3374 ;; Tracked objects:
  3375 ;;		On entry : 0/0
  3376 ;;		On exit  : 0/0
  3377 ;;		Unchanged: 0/0
  3378 ;; Data sizes:     COMMON   BANK0   BANK1   BANK3   BANK2
  3379 ;;      Params:         0       2       0       0       0
  3380 ;;      Locals:         0       3       0       0       0
  3381 ;;      Temps:          0       3       0       0       0
  3382 ;;      Totals:         0       8       0       0       0
  3383 ;;Total ram usage:        8 bytes
  3384 ;; Hardware stack levels used:    1
  3385 ;; Hardware stack levels required when called:    4
  3386 ;; This function calls:
  3387 ;;		_EnderecoX
  3388 ;;		_EnderecoY
  3389 ;;		_NovoX
  3390 ;;		_EnviarDado
  3391 ;; This function is called by:
  3392 ;;		_EscreveCaractere
  3393 ;;		_DesenharBitmap
  3394 ;;		_Cursor
  3395 ;; This function uses a non-reentrant model
  3396 ;;
  3397                           psect	text655
  3398                           	file	"C:\OD\OneDrive\Pessoal\Projetos para o GitHub\LCD Gráfico\lcd_grafico.c"
  3399                           	line	36
  3400                           	global	__size_of_Ponto
  3401  0074                     	__size_of_Ponto	equ	__end_of_Ponto-_Ponto
  3402                           	
  3403  03FE                     _Ponto:	
  3404                           	opt	stack 2
  3405                           ; Regs used in _Ponto: [wreg-fsr0h+status,2+status,0+pclath+cstack]
  3406                           ;Ponto@x stored from wreg
  3407                           	line	39
  3408  03FE  1283               	bcf	status, 5	;RP0=0, select bank0
  3409  03FF  1303               	bcf	status, 6	;RP1=0, select bank0
  3410  0400  00B0               	movwf	(Ponto@x)
  3411                           	
  3412  0401                     l5330:	
  3413                           ;lcd_grafico.c: 37: unsigned char area;
  3414                           ;lcd_grafico.c: 38: unsigned char pagina;
  3415                           ;lcd_grafico.c: 39: if(y < 64)
  3416  0401  3040               	movlw	(040h)
  3417  0402  022A               	subwf	(Ponto@y),w
  3418  0403  1803               	skipnc
  3419  0404  2C06               	goto	u3421
  3420  0405  2C07               	goto	u3420
  3421  0406                     u3421:
  3422  0406  2C0B               	goto	l5334
  3423  0407                     u3420:
  3424                           	line	40
  3425                           	
  3426  0407                     l5332:	
  3427                           ;lcd_grafico.c: 40: area = 1;
  3428  0407  01B1               	clrf	(Ponto@area)
  3429  0408  1403               	bsf	status,0
  3430  0409  0DB1               	rlf	(Ponto@area),f
  3431  040A  2C15               	goto	l5338
  3432                           	line	41
  3433                           	
  3434  040B                     l44:	
  3435                           	line	43
  3436                           	
  3437  040B                     l5334:	
  3438                           ;lcd_grafico.c: 41: else
  3439                           ;lcd_grafico.c: 42: {
  3440                           ;lcd_grafico.c: 43: y = y - 64;
  3441  040B  082A               	movf	(Ponto@y),w
  3442  040C  3EC0               	addlw	0C0h
  3443  040D  00AC               	movwf	(??_Ponto+0)+0
  3444  040E  082C               	movf	(??_Ponto+0)+0,w
  3445  040F  00AA               	movwf	(Ponto@y)
  3446                           	line	44
  3447                           	
  3448  0410                     l5336:	
  3449                           ;lcd_grafico.c: 44: area = 2;
  3450  0410  3002               	movlw	(02h)
  3451  0411  00AC               	movwf	(??_Ponto+0)+0
  3452  0412  082C               	movf	(??_Ponto+0)+0,w
  3453  0413  00B1               	movwf	(Ponto@area)
  3454  0414  2C15               	goto	l5338
  3455                           	line	45
  3456                           	
  3457  0415                     l45:	
  3458                           	line	46
  3459                           	
  3460  0415                     l5338:	
  3461                           ;lcd_grafico.c: 45: }
  3462                           ;lcd_grafico.c: 46: pagina = x >> 3;
  3463  0415  0830               	movf	(Ponto@x),w
  3464  0416  00AC               	movwf	(??_Ponto+0)+0
  3465  0417  3003               	movlw	03h
  3466  0418                     u3435:
  3467  0418  1003               	clrc
  3468  0419  0CAC               	rrf	(??_Ponto+0)+0,f
  3469  041A  3EFF               	addlw	-1
  3470  041B  1D03               	skipz
  3471  041C  2C18               	goto	u3435
  3472  041D  082C               	movf	0+(??_Ponto+0)+0,w
  3473  041E  00AD               	movwf	(??_Ponto+1)+0
  3474  041F  082D               	movf	(??_Ponto+1)+0,w
  3475  0420  00AF               	movwf	(Ponto@pagina)
  3476                           	line	47
  3477                           	
  3478  0421                     l5340:	
  3479                           ;lcd_grafico.c: 47: EnderecoX(pagina, area);
  3480  0421  0831               	movf	(Ponto@area),w
  3481  0422  00AC               	movwf	(??_Ponto+0)+0
  3482  0423  082C               	movf	(??_Ponto+0)+0,w
  3483  0424  00F8               	movwf	(?_EnderecoX)
  3484  0425  082F               	movf	(Ponto@pagina),w
  3485  0426  120A  118A  2016   	fcall	_EnderecoX
              120A  118A         
  3486                           	line	48
  3487                           	
  3488  042B                     l5342:	
  3489                           ;lcd_grafico.c: 48: x = ((pagina + 1) << 3) - x;
  3490  042B  1283               	bcf	status, 5	;RP0=0, select bank0
  3491  042C  1303               	bcf	status, 6	;RP1=0, select bank0
  3492  042D  082F               	movf	(Ponto@pagina),w
  3493  042E  00AC               	movwf	(??_Ponto+0)+0
  3494  042F  3003               	movlw	03h
  3495  0430                     u3445:
  3496  0430  1003               	clrc
  3497  0431  0DAC               	rlf	(??_Ponto+0)+0,f
  3498  0432  3EFF               	addlw	-1
  3499  0433  1D03               	skipz
  3500  0434  2C30               	goto	u3445
  3501  0435  0330               	decf	(Ponto@x),w
  3502  0436  3AFF               	xorlw	0ffh
  3503  0437  072C               	addwf	0+(??_Ponto+0)+0,w
  3504  0438  3E08               	addlw	08h
  3505  0439  00AD               	movwf	(??_Ponto+1)+0
  3506  043A  082D               	movf	(??_Ponto+1)+0,w
  3507  043B  00B0               	movwf	(Ponto@x)
  3508                           	line	49
  3509                           	
  3510  043C                     l5344:	
  3511                           ;lcd_grafico.c: 49: EnderecoY(y, area);
  3512  043C  0831               	movf	(Ponto@area),w
  3513  043D  00AC               	movwf	(??_Ponto+0)+0
  3514  043E  082C               	movf	(??_Ponto+0)+0,w
  3515  043F  00F8               	movwf	(?_EnderecoY)
  3516  0440  082A               	movf	(Ponto@y),w
  3517  0441  120A  118A  2039   	fcall	_EnderecoY
              120A  118A         
  3518                           	line	50
  3519                           	
  3520  0446                     l5346:	
  3521                           ;lcd_grafico.c: 50: x = NovoX(x, area, cor);
  3522  0446  1283               	bcf	status, 5	;RP0=0, select bank0
  3523  0447  1303               	bcf	status, 6	;RP1=0, select bank0
  3524  0448  0831               	movf	(Ponto@area),w
  3525  0449  00AC               	movwf	(??_Ponto+0)+0
  3526  044A  082C               	movf	(??_Ponto+0)+0,w
  3527  044B  00A0               	movwf	(?_NovoX)
  3528  044C  082B               	movf	(Ponto@cor),w
  3529  044D  00AD               	movwf	(??_Ponto+1)+0
  3530  044E  082D               	movf	(??_Ponto+1)+0,w
  3531  044F  00A1               	movwf	0+(?_NovoX)+01h
  3532  0450  0830               	movf	(Ponto@x),w
  3533  0451  120A  118A  22FD   	fcall	_NovoX
              120A  118A         
  3534  0456  1283               	bcf	status, 5	;RP0=0, select bank0
  3535  0457  1303               	bcf	status, 6	;RP1=0, select bank0
  3536  0458  00AE               	movwf	(??_Ponto+2)+0
  3537  0459  082E               	movf	(??_Ponto+2)+0,w
  3538  045A  00B0               	movwf	(Ponto@x)
  3539                           	line	51
  3540                           	
  3541  045B                     l5348:	
  3542                           ;lcd_grafico.c: 51: EnderecoY(y, area);
  3543  045B  0831               	movf	(Ponto@area),w
  3544  045C  00AC               	movwf	(??_Ponto+0)+0
  3545  045D  082C               	movf	(??_Ponto+0)+0,w
  3546  045E  00F8               	movwf	(?_EnderecoY)
  3547  045F  082A               	movf	(Ponto@y),w
  3548  0460  120A  118A  2039   	fcall	_EnderecoY
              120A  118A         
  3549                           	line	52
  3550                           	
  3551  0465                     l5350:	
  3552                           ;lcd_grafico.c: 52: EnviarDado(x, area);
  3553  0465  1283               	bcf	status, 5	;RP0=0, select bank0
  3554  0466  1303               	bcf	status, 6	;RP1=0, select bank0
  3555  0467  0831               	movf	(Ponto@area),w
  3556  0468  00AC               	movwf	(??_Ponto+0)+0
  3557  0469  082C               	movf	(??_Ponto+0)+0,w
  3558  046A  00F8               	movwf	(?_EnviarDado)
  3559  046B  0830               	movf	(Ponto@x),w
  3560  046C  120A  158A  27BB   	fcall	_EnviarDado
              120A  118A         
  3561                           	line	53
  3562                           	
  3563  0471                     l46:	
  3564  0471  0008               	return
  3565                           	opt stack 0
  3566                           GLOBAL	__end_of_Ponto
  3567  0472                     	__end_of_Ponto:
  3568 ;; =============== function _Ponto ends ============
  3569                           
  3570                           	signat	_Ponto,12408
  3571                           	global	_LimparDisplay
  3572                           psect	text656,local,class=CODE,delta=2
  3573                           global __ptext656
  3574  02C0                     __ptext656:
  3575                           
  3576 ;; *************** function _LimparDisplay *****************
  3577 ;; Defined at:
  3578 ;;		line 74 in file "C:\OD\OneDrive\Pessoal\Projetos para o GitHub\LCD Gráfico\lcd_grafico.c"
  3579 ;; Parameters:    Size  Location     Type
  3580 ;;		None
  3581 ;; Auto vars:     Size  Location     Type
  3582 ;;  x               1   13[COMMON] unsigned char 
  3583 ;;  y               1   12[COMMON] unsigned char 
  3584 ;; Return value:  Size  Location     Type
  3585 ;;		None               void
  3586 ;; Registers used:
  3587 ;;		wreg, fsr0l, fsr0h, status,2, status,0, pclath, cstack
  3588 ;; Tracked objects:
  3589 ;;		On entry : 0/0
  3590 ;;		On exit  : 0/0
  3591 ;;		Unchanged: 0/0
  3592 ;; Data sizes:     COMMON   BANK0   BANK1   BANK3   BANK2
  3593 ;;      Params:         0       0       0       0       0
  3594 ;;      Locals:         2       0       0       0       0
  3595 ;;      Temps:          1       0       0       0       0
  3596 ;;      Totals:         3       0       0       0       0
  3597 ;;Total ram usage:        3 bytes
  3598 ;; Hardware stack levels used:    1
  3599 ;; Hardware stack levels required when called:    3
  3600 ;; This function calls:
  3601 ;;		_EnderecoX
  3602 ;;		_EnviarDado
  3603 ;; This function is called by:
  3604 ;;		_InicializarDisplay
  3605 ;; This function uses a non-reentrant model
  3606 ;;
  3607                           psect	text656
  3608                           	file	"C:\OD\OneDrive\Pessoal\Projetos para o GitHub\LCD Gráfico\lcd_grafico.c"
  3609                           	line	74
  3610                           	global	__size_of_LimparDisplay
  3611  003D                     	__size_of_LimparDisplay	equ	__end_of_LimparDisplay-_LimparDisplay
  3612                           	
  3613  02C0                     _LimparDisplay:	
  3614                           	opt	stack 3
  3615                           ; Regs used in _LimparDisplay: [wreg-fsr0h+status,2+status,0+pclath+cstack]
  3616                           	line	76
  3617                           	
  3618  02C0                     l5306:	
  3619                           ;lcd_grafico.c: 75: unsigned char x, y;
  3620                           ;lcd_grafico.c: 76: for(x = 0; x < 8; x++)
  3621  02C0  01FD               	clrf	(LimparDisplay@x)
  3622                           	
  3623  02C1                     l5308:	
  3624  02C1  3008               	movlw	(08h)
  3625  02C2  027D               	subwf	(LimparDisplay@x),w
  3626  02C3  1C03               	skipc
  3627  02C4  2AC6               	goto	u3381
  3628  02C5  2AC7               	goto	u3380
  3629  02C6                     u3381:
  3630  02C6  2AC9               	goto	l5312
  3631  02C7                     u3380:
  3632  02C7  2AFC               	goto	l60
  3633                           	
  3634  02C8                     l5310:	
  3635  02C8  2AFC               	goto	l60
  3636                           	line	77
  3637                           	
  3638  02C9                     l56:	
  3639                           	line	78
  3640                           	
  3641  02C9                     l5312:	
  3642                           ;lcd_grafico.c: 77: {
  3643                           ;lcd_grafico.c: 78: EnderecoX(x, 3);
  3644  02C9  3003               	movlw	(03h)
  3645  02CA  00FB               	movwf	(??_LimparDisplay+0)+0
  3646  02CB  087B               	movf	(??_LimparDisplay+0)+0,w
  3647  02CC  00F8               	movwf	(?_EnderecoX)
  3648  02CD  087D               	movf	(LimparDisplay@x),w
  3649  02CE  120A  118A  2016   	fcall	_EnderecoX
              120A  118A         
  3650                           	line	79
  3651                           	
  3652  02D3                     l5314:	
  3653                           ;lcd_grafico.c: 79: for(y = 0; y < 64; y++)
  3654  02D3  01FC               	clrf	(LimparDisplay@y)
  3655                           	
  3656  02D4                     l5316:	
  3657  02D4  3040               	movlw	(040h)
  3658  02D5  027C               	subwf	(LimparDisplay@y),w
  3659  02D6  1C03               	skipc
  3660  02D7  2AD9               	goto	u3391
  3661  02D8  2ADA               	goto	u3390
  3662  02D9                     u3391:
  3663  02D9  2ADC               	goto	l5320
  3664  02DA                     u3390:
  3665  02DA  2AF1               	goto	l5326
  3666                           	
  3667  02DB                     l5318:	
  3668  02DB  2AF1               	goto	l5326
  3669                           	line	80
  3670                           	
  3671  02DC                     l58:	
  3672                           	
  3673  02DC                     l5320:	
  3674                           ;lcd_grafico.c: 80: EnviarDado(0, 3);
  3675  02DC  3003               	movlw	(03h)
  3676  02DD  00FB               	movwf	(??_LimparDisplay+0)+0
  3677  02DE  087B               	movf	(??_LimparDisplay+0)+0,w
  3678  02DF  00F8               	movwf	(?_EnviarDado)
  3679  02E0  3000               	movlw	(0)
  3680  02E1  120A  158A  27BB   	fcall	_EnviarDado
              120A  118A         
  3681                           	line	79
  3682                           	
  3683  02E6                     l5322:	
  3684  02E6  3001               	movlw	(01h)
  3685  02E7  00FB               	movwf	(??_LimparDisplay+0)+0
  3686  02E8  087B               	movf	(??_LimparDisplay+0)+0,w
  3687  02E9  07FC               	addwf	(LimparDisplay@y),f
  3688                           	
  3689  02EA                     l5324:	
  3690  02EA  3040               	movlw	(040h)
  3691  02EB  027C               	subwf	(LimparDisplay@y),w
  3692  02EC  1C03               	skipc
  3693  02ED  2AEF               	goto	u3401
  3694  02EE  2AF0               	goto	u3400
  3695  02EF                     u3401:
  3696  02EF  2ADC               	goto	l5320
  3697  02F0                     u3400:
  3698  02F0  2AF1               	goto	l5326
  3699                           	
  3700  02F1                     l59:	
  3701                           	line	76
  3702                           	
  3703  02F1                     l5326:	
  3704  02F1  3001               	movlw	(01h)
  3705  02F2  00FB               	movwf	(??_LimparDisplay+0)+0
  3706  02F3  087B               	movf	(??_LimparDisplay+0)+0,w
  3707  02F4  07FD               	addwf	(LimparDisplay@x),f
  3708                           	
  3709  02F5                     l5328:	
  3710  02F5  3008               	movlw	(08h)
  3711  02F6  027D               	subwf	(LimparDisplay@x),w
  3712  02F7  1C03               	skipc
  3713  02F8  2AFA               	goto	u3411
  3714  02F9  2AFB               	goto	u3410
  3715  02FA                     u3411:
  3716  02FA  2AC9               	goto	l5312
  3717  02FB                     u3410:
  3718  02FB  2AFC               	goto	l60
  3719                           	
  3720  02FC                     l57:	
  3721                           	line	82
  3722                           	
  3723  02FC                     l60:	
  3724  02FC  0008               	return
  3725                           	opt stack 0
  3726                           GLOBAL	__end_of_LimparDisplay
  3727  02FD                     	__end_of_LimparDisplay:
  3728 ;; =============== function _LimparDisplay ends ============
  3729                           
  3730                           	signat	_LimparDisplay,88
  3731                           	global	_NovoX
  3732                           psect	text657,local,class=CODE,delta=2
  3733                           global __ptext657
  3734  02FD                     __ptext657:
  3735                           
  3736 ;; *************** function _NovoX *****************
  3737 ;; Defined at:
  3738 ;;		line 64 in file "C:\OD\OneDrive\Pessoal\Projetos para o GitHub\LCD Gráfico\lcd_grafico.c"
  3739 ;; Parameters:    Size  Location     Type
  3740 ;;  x               1    wreg     unsigned char 
  3741 ;;  area            1    0[BANK0 ] unsigned char 
  3742 ;;  cor             1    1[BANK0 ] unsigned char 
  3743 ;; Auto vars:     Size  Location     Type
  3744 ;;  x               1    8[BANK0 ] unsigned char 
  3745 ;;  leitura         1    9[BANK0 ] unsigned char 
  3746 ;; Return value:  Size  Location     Type
  3747 ;;                  1    wreg      unsigned char 
  3748 ;; Registers used:
  3749 ;;		wreg, fsr0l, fsr0h, status,2, status,0, pclath, cstack
  3750 ;; Tracked objects:
  3751 ;;		On entry : 0/0
  3752 ;;		On exit  : 0/0
  3753 ;;		Unchanged: 0/0
  3754 ;; Data sizes:     COMMON   BANK0   BANK1   BANK3   BANK2
  3755 ;;      Params:         0       2       0       0       0
  3756 ;;      Locals:         0       4       0       0       0
  3757 ;;      Temps:          0       4       0       0       0
  3758 ;;      Totals:         0      10       0       0       0
  3759 ;;Total ram usage:       10 bytes
  3760 ;; Hardware stack levels used:    1
  3761 ;; Hardware stack levels required when called:    3
  3762 ;; This function calls:
  3763 ;;		_LerDado
  3764 ;; This function is called by:
  3765 ;;		_Ponto
  3766 ;; This function uses a non-reentrant model
  3767 ;;
  3768                           psect	text657
  3769                           	file	"C:\OD\OneDrive\Pessoal\Projetos para o GitHub\LCD Gráfico\lcd_grafico.c"
  3770                           	line	64
  3771                           	global	__size_of_NovoX
  3772  0047                     	__size_of_NovoX	equ	__end_of_NovoX-_NovoX
  3773                           	
  3774  02FD                     _NovoX:	
  3775                           	opt	stack 2
  3776                           ; Regs used in _NovoX: [wreg-fsr0h+status,2+status,0+pclath+cstack]
  3777                           ;NovoX@x stored from wreg
  3778                           	line	66
  3779  02FD  1283               	bcf	status, 5	;RP0=0, select bank0
  3780  02FE  1303               	bcf	status, 6	;RP1=0, select bank0
  3781  02FF  00A8               	movwf	(NovoX@x)
  3782                           	
  3783  0300                     l5294:	
  3784                           ;lcd_grafico.c: 65: unsigned char leitura;
  3785                           ;lcd_grafico.c: 66: leitura = LerDado(area);
  3786  0300  0820               	movf	(NovoX@area),w
  3787  0301  120A  158A  275B   	fcall	_LerDado
              120A  118A         
  3788  0306  1283               	bcf	status, 5	;RP0=0, select bank0
  3789  0307  1303               	bcf	status, 6	;RP1=0, select bank0
  3790  0308  00A2               	movwf	(??_NovoX+0)+0
  3791  0309  0822               	movf	(??_NovoX+0)+0,w
  3792  030A  00A9               	movwf	(NovoX@leitura)
  3793                           	line	67
  3794                           	
  3795  030B                     l5296:	
  3796                           ;lcd_grafico.c: 67: return cor ? leitura |= (1 << (7 - x)) : leitura &= ~(1 << (7 - x));
  3797  030B  08A1               	movf	(NovoX@cor),f
  3798  030C  1D03               	skipz
  3799  030D  2B0F               	goto	u3351
  3800  030E  2B10               	goto	u3350
  3801  030F                     u3351:
  3802  030F  2B29               	goto	l5300
  3803  0310                     u3350:
  3804                           	
  3805  0310                     l5298:	
  3806  0310  3001               	movlw	(01h)
  3807  0311  00A2               	movwf	(??_NovoX+0)+0
  3808  0312  0328               	decf	(NovoX@x),w
  3809  0313  3AFF               	xorlw	0ffh
  3810  0314  3E07               	addlw	07h
  3811  0315  3E01               	addlw	1
  3812  0316  2B19               	goto	u3364
  3813  0317                     u3365:
  3814  0317  1003               	clrc
  3815  0318  0DA2               	rlf	(??_NovoX+0)+0,f
  3816  0319                     u3364:
  3817  0319  3EFF               	addlw	-1
  3818  031A  1D03               	skipz
  3819  031B  2B17               	goto	u3365
  3820  031C  0822               	movf	0+(??_NovoX+0)+0,w
  3821  031D  3AFF               	xorlw	0ffh
  3822  031E  00A3               	movwf	(??_NovoX+1)+0
  3823  031F  0823               	movf	(??_NovoX+1)+0,w
  3824  0320  05A9               	andwf	(NovoX@leitura),f
  3825  0321  0829               	movf	((NovoX@leitura)),w
  3826  0322  00A4               	movwf	(??_NovoX+2)+0
  3827  0323  01A5               	clrf	(??_NovoX+2)+0+1
  3828  0324  0824               	movf	0+(??_NovoX+2)+0,w
  3829  0325  00A6               	movwf	(_NovoX$157)
  3830  0326  0825               	movf	1+(??_NovoX+2)+0,w
  3831  0327  00A7               	movwf	(_NovoX$157+1)
  3832  0328  2B41               	goto	l5302
  3833                           	
  3834  0329                     l50:	
  3835                           	
  3836  0329                     l5300:	
  3837  0329  3001               	movlw	(01h)
  3838  032A  00A2               	movwf	(??_NovoX+0)+0
  3839  032B  0328               	decf	(NovoX@x),w
  3840  032C  3AFF               	xorlw	0ffh
  3841  032D  3E07               	addlw	07h
  3842  032E  3E01               	addlw	1
  3843  032F  2B32               	goto	u3374
  3844  0330                     u3375:
  3845  0330  1003               	clrc
  3846  0331  0DA2               	rlf	(??_NovoX+0)+0,f
  3847  0332                     u3374:
  3848  0332  3EFF               	addlw	-1
  3849  0333  1D03               	skipz
  3850  0334  2B30               	goto	u3375
  3851  0335  0822               	movf	0+(??_NovoX+0)+0,w
  3852  0336  00A3               	movwf	(??_NovoX+1)+0
  3853  0337  0823               	movf	(??_NovoX+1)+0,w
  3854  0338  04A9               	iorwf	(NovoX@leitura),f
  3855  0339  0829               	movf	((NovoX@leitura)),w
  3856  033A  00A4               	movwf	(??_NovoX+2)+0
  3857  033B  01A5               	clrf	(??_NovoX+2)+0+1
  3858  033C  0824               	movf	0+(??_NovoX+2)+0,w
  3859  033D  00A6               	movwf	(_NovoX$157)
  3860  033E  0825               	movf	1+(??_NovoX+2)+0,w
  3861  033F  00A7               	movwf	(_NovoX$157+1)
  3862  0340  2B41               	goto	l5302
  3863                           	
  3864  0341                     l52:	
  3865                           	
  3866  0341                     l5302:	
  3867  0341  0826               	movf	(_NovoX$157),w
  3868  0342  2B43               	goto	l53
  3869                           	
  3870  0343                     l5304:	
  3871                           	line	68
  3872                           	
  3873  0343                     l53:	
  3874  0343  0008               	return
  3875                           	opt stack 0
  3876                           GLOBAL	__end_of_NovoX
  3877  0344                     	__end_of_NovoX:
  3878 ;; =============== function _NovoX ends ============
  3879                           
  3880                           	signat	_NovoX,12409
  3881                           	global	_InverterCores
  3882                           psect	text658,local,class=CODE,delta=2
  3883                           global __ptext658
  3884  0472                     __ptext658:
  3885                           
  3886 ;; *************** function _InverterCores *****************
  3887 ;; Defined at:
  3888 ;;		line 8 in file "C:\OD\OneDrive\Pessoal\Projetos para o GitHub\LCD Gráfico\lcd_grafico.c"
  3889 ;; Parameters:    Size  Location     Type
  3890 ;;		None
  3891 ;; Auto vars:     Size  Location     Type
  3892 ;;  area            1    3[BANK0 ] unsigned char 
  3893 ;;  y               1    2[BANK0 ] unsigned char 
  3894 ;;  x               1    1[BANK0 ] unsigned char 
  3895 ;;  leitura         1    0[BANK0 ] unsigned char 
  3896 ;; Return value:  Size  Location     Type
  3897 ;;		None               void
  3898 ;; Registers used:
  3899 ;;		wreg, fsr0l, fsr0h, status,2, status,0, pclath, cstack
  3900 ;; Tracked objects:
  3901 ;;		On entry : 0/0
  3902 ;;		On exit  : 0/0
  3903 ;;		Unchanged: 0/0
  3904 ;; Data sizes:     COMMON   BANK0   BANK1   BANK3   BANK2
  3905 ;;      Params:         0       0       0       0       0
  3906 ;;      Locals:         0       4       0       0       0
  3907 ;;      Temps:          1       0       0       0       0
  3908 ;;      Totals:         1       4       0       0       0
  3909 ;;Total ram usage:        5 bytes
  3910 ;; Hardware stack levels used:    1
  3911 ;; Hardware stack levels required when called:    3
  3912 ;; This function calls:
  3913 ;;		_EnderecoX
  3914 ;;		_EnderecoY
  3915 ;;		_LerDado
  3916 ;;		_EnviarDado
  3917 ;; This function is called by:
  3918 ;;		_main
  3919 ;; This function uses a non-reentrant model
  3920 ;;
  3921                           psect	text658
  3922                           	file	"C:\OD\OneDrive\Pessoal\Projetos para o GitHub\LCD Gráfico\lcd_grafico.c"
  3923                           	line	8
  3924                           	global	__size_of_InverterCores
  3925  007C                     	__size_of_InverterCores	equ	__end_of_InverterCores-_InverterCores
  3926                           	
  3927  0472                     _InverterCores:	
  3928                           	opt	stack 4
  3929                           ; Regs used in _InverterCores: [wreg-fsr0h+status,2+status,0+pclath+cstack]
  3930                           	line	12
  3931                           	
  3932  0472                     l5262:	
  3933                           ;lcd_grafico.c: 9: unsigned char leitura;
  3934                           ;lcd_grafico.c: 10: unsigned char x, y;
  3935                           ;lcd_grafico.c: 11: unsigned char area;
  3936                           ;lcd_grafico.c: 12: for(area = 1; area < 3; area++)
  3937  0472  1283               	bcf	status, 5	;RP0=0, select bank0
  3938  0473  1303               	bcf	status, 6	;RP1=0, select bank0
  3939  0474  01A3               	clrf	(InverterCores@area)
  3940  0475  1403               	bsf	status,0
  3941  0476  0DA3               	rlf	(InverterCores@area),f
  3942                           	
  3943  0477                     l5264:	
  3944  0477  3003               	movlw	(03h)
  3945  0478  0223               	subwf	(InverterCores@area),w
  3946  0479  1C03               	skipc
  3947  047A  2C7C               	goto	u3291
  3948  047B  2C7D               	goto	u3290
  3949  047C                     u3291:
  3950  047C  2C7F               	goto	l35
  3951  047D                     u3290:
  3952  047D  2CED               	goto	l41
  3953                           	
  3954  047E                     l5266:	
  3955  047E  2CED               	goto	l41
  3956                           	line	13
  3957                           	
  3958  047F                     l35:	
  3959                           	line	14
  3960                           ;lcd_grafico.c: 13: {
  3961                           ;lcd_grafico.c: 14: for(x = 0; x < 8; x++)
  3962  047F  01A1               	clrf	(InverterCores@x)
  3963                           	
  3964  0480                     l5268:	
  3965  0480  3008               	movlw	(08h)
  3966  0481  0221               	subwf	(InverterCores@x),w
  3967  0482  1C03               	skipc
  3968  0483  2C85               	goto	u3301
  3969  0484  2C86               	goto	u3300
  3970  0485                     u3301:
  3971  0485  2C88               	goto	l5272
  3972  0486                     u3300:
  3973  0486  2CE2               	goto	l5290
  3974                           	
  3975  0487                     l5270:	
  3976  0487  2CE2               	goto	l5290
  3977                           	line	15
  3978                           	
  3979  0488                     l37:	
  3980                           	line	16
  3981                           	
  3982  0488                     l5272:	
  3983                           ;lcd_grafico.c: 15: {
  3984                           ;lcd_grafico.c: 16: EnderecoX(x, area);
  3985  0488  0823               	movf	(InverterCores@area),w
  3986  0489  00FD               	movwf	(??_InverterCores+0)+0
  3987  048A  087D               	movf	(??_InverterCores+0)+0,w
  3988  048B  00F8               	movwf	(?_EnderecoX)
  3989  048C  0821               	movf	(InverterCores@x),w
  3990  048D  120A  118A  2016   	fcall	_EnderecoX
              120A  118A         
  3991                           	line	17
  3992                           	
  3993  0492                     l5274:	
  3994                           ;lcd_grafico.c: 17: for(y = 0; y < 64; y++)
  3995  0492  1283               	bcf	status, 5	;RP0=0, select bank0
  3996  0493  1303               	bcf	status, 6	;RP1=0, select bank0
  3997  0494  01A2               	clrf	(InverterCores@y)
  3998                           	
  3999  0495                     l5276:	
  4000  0495  3040               	movlw	(040h)
  4001  0496  0222               	subwf	(InverterCores@y),w
  4002  0497  1C03               	skipc
  4003  0498  2C9A               	goto	u3311
  4004  0499  2C9B               	goto	u3310
  4005  049A                     u3311:
  4006  049A  2C9D               	goto	l5280
  4007  049B                     u3310:
  4008  049B  2CD7               	goto	l5286
  4009                           	
  4010  049C                     l5278:	
  4011  049C  2CD7               	goto	l5286
  4012                           	line	18
  4013                           	
  4014  049D                     l39:	
  4015                           	line	19
  4016                           	
  4017  049D                     l5280:	
  4018                           ;lcd_grafico.c: 18: {
  4019                           ;lcd_grafico.c: 19: EnderecoY(y, area);
  4020  049D  0823               	movf	(InverterCores@area),w
  4021  049E  00FD               	movwf	(??_InverterCores+0)+0
  4022  049F  087D               	movf	(??_InverterCores+0)+0,w
  4023  04A0  00F8               	movwf	(?_EnderecoY)
  4024  04A1  0822               	movf	(InverterCores@y),w
  4025  04A2  120A  118A  2039   	fcall	_EnderecoY
              120A  118A         
  4026                           	line	20
  4027                           ;lcd_grafico.c: 20: leitura=LerDado(area);
  4028  04A7  1283               	bcf	status, 5	;RP0=0, select bank0
  4029  04A8  1303               	bcf	status, 6	;RP1=0, select bank0
  4030  04A9  0823               	movf	(InverterCores@area),w
  4031  04AA  120A  158A  275B   	fcall	_LerDado
              120A  118A         
  4032  04AF  00FD               	movwf	(??_InverterCores+0)+0
  4033  04B0  087D               	movf	(??_InverterCores+0)+0,w
  4034  04B1  1283               	bcf	status, 5	;RP0=0, select bank0
  4035  04B2  1303               	bcf	status, 6	;RP1=0, select bank0
  4036  04B3  00A0               	movwf	(InverterCores@leitura)
  4037                           	line	21
  4038                           ;lcd_grafico.c: 21: EnderecoY(y, area);
  4039  04B4  0823               	movf	(InverterCores@area),w
  4040  04B5  00FD               	movwf	(??_InverterCores+0)+0
  4041  04B6  087D               	movf	(??_InverterCores+0)+0,w
  4042  04B7  00F8               	movwf	(?_EnderecoY)
  4043  04B8  0822               	movf	(InverterCores@y),w
  4044  04B9  120A  118A  2039   	fcall	_EnderecoY
              120A  118A         
  4045                           	line	22
  4046                           ;lcd_grafico.c: 22: EnviarDado(~leitura, area);
  4047  04BE  1283               	bcf	status, 5	;RP0=0, select bank0
  4048  04BF  1303               	bcf	status, 6	;RP1=0, select bank0
  4049  04C0  0823               	movf	(InverterCores@area),w
  4050  04C1  00FD               	movwf	(??_InverterCores+0)+0
  4051  04C2  087D               	movf	(??_InverterCores+0)+0,w
  4052  04C3  00F8               	movwf	(?_EnviarDado)
  4053  04C4  0920               	comf	(InverterCores@leitura),w
  4054  04C5  120A  158A  27BB   	fcall	_EnviarDado
              120A  118A         
  4055                           	line	17
  4056                           	
  4057  04CA                     l5282:	
  4058  04CA  3001               	movlw	(01h)
  4059  04CB  00FD               	movwf	(??_InverterCores+0)+0
  4060  04CC  087D               	movf	(??_InverterCores+0)+0,w
  4061  04CD  1283               	bcf	status, 5	;RP0=0, select bank0
  4062  04CE  1303               	bcf	status, 6	;RP1=0, select bank0
  4063  04CF  07A2               	addwf	(InverterCores@y),f
  4064                           	
  4065  04D0                     l5284:	
  4066  04D0  3040               	movlw	(040h)
  4067  04D1  0222               	subwf	(InverterCores@y),w
  4068  04D2  1C03               	skipc
  4069  04D3  2CD5               	goto	u3321
  4070  04D4  2CD6               	goto	u3320
  4071  04D5                     u3321:
  4072  04D5  2C9D               	goto	l5280
  4073  04D6                     u3320:
  4074  04D6  2CD7               	goto	l5286
  4075                           	
  4076  04D7                     l40:	
  4077                           	line	14
  4078                           	
  4079  04D7                     l5286:	
  4080  04D7  3001               	movlw	(01h)
  4081  04D8  00FD               	movwf	(??_InverterCores+0)+0
  4082  04D9  087D               	movf	(??_InverterCores+0)+0,w
  4083  04DA  07A1               	addwf	(InverterCores@x),f
  4084                           	
  4085  04DB                     l5288:	
  4086  04DB  3008               	movlw	(08h)
  4087  04DC  0221               	subwf	(InverterCores@x),w
  4088  04DD  1C03               	skipc
  4089  04DE  2CE0               	goto	u3331
  4090  04DF  2CE1               	goto	u3330
  4091  04E0                     u3331:
  4092  04E0  2C88               	goto	l5272
  4093  04E1                     u3330:
  4094  04E1  2CE2               	goto	l5290
  4095                           	
  4096  04E2                     l38:	
  4097                           	line	12
  4098                           	
  4099  04E2                     l5290:	
  4100  04E2  3001               	movlw	(01h)
  4101  04E3  00FD               	movwf	(??_InverterCores+0)+0
  4102  04E4  087D               	movf	(??_InverterCores+0)+0,w
  4103  04E5  07A3               	addwf	(InverterCores@area),f
  4104                           	
  4105  04E6                     l5292:	
  4106  04E6  3003               	movlw	(03h)
  4107  04E7  0223               	subwf	(InverterCores@area),w
  4108  04E8  1C03               	skipc
  4109  04E9  2CEB               	goto	u3341
  4110  04EA  2CEC               	goto	u3340
  4111  04EB                     u3341:
  4112  04EB  2C7F               	goto	l35
  4113  04EC                     u3340:
  4114  04EC  2CED               	goto	l41
  4115                           	
  4116  04ED                     l36:	
  4117                           	line	26
  4118                           	
  4119  04ED                     l41:	
  4120  04ED  0008               	return
  4121                           	opt stack 0
  4122                           GLOBAL	__end_of_InverterCores
  4123  04EE                     	__end_of_InverterCores:
  4124 ;; =============== function _InverterCores ends ============
  4125                           
  4126                           	signat	_InverterCores,88
  4127                           	global	_LigarDisplay
  4128                           psect	text659,local,class=CODE,delta=2
  4129                           global __ptext659
  4130  0F9A                     __ptext659:
  4131                           
  4132 ;; *************** function _LigarDisplay *****************
  4133 ;; Defined at:
  4134 ;;		line 149 in file "C:\OD\OneDrive\Pessoal\Projetos para o GitHub\LCD Gráfico\lcd_grafico.c"
  4135 ;; Parameters:    Size  Location     Type
  4136 ;;		None
  4137 ;; Auto vars:     Size  Location     Type
  4138 ;;		None
  4139 ;; Return value:  Size  Location     Type
  4140 ;;		None               void
  4141 ;; Registers used:
  4142 ;;		wreg, fsr0l, fsr0h, status,2, status,0, pclath, cstack
  4143 ;; Tracked objects:
  4144 ;;		On entry : 0/0
  4145 ;;		On exit  : 0/0
  4146 ;;		Unchanged: 0/0
  4147 ;; Data sizes:     COMMON   BANK0   BANK1   BANK3   BANK2
  4148 ;;      Params:         0       0       0       0       0
  4149 ;;      Locals:         0       0       0       0       0
  4150 ;;      Temps:          1       0       0       0       0
  4151 ;;      Totals:         1       0       0       0       0
  4152 ;;Total ram usage:        1 bytes
  4153 ;; Hardware stack levels used:    1
  4154 ;; Hardware stack levels required when called:    2
  4155 ;; This function calls:
  4156 ;;		_SelecionarArea
  4157 ;;		_RS
  4158 ;;		_Clock
  4159 ;; This function is called by:
  4160 ;;		_InicializarDisplay
  4161 ;; This function uses a non-reentrant model
  4162 ;;
  4163                           psect	text659
  4164                           	file	"C:\OD\OneDrive\Pessoal\Projetos para o GitHub\LCD Gráfico\lcd_grafico.c"
  4165                           	line	149
  4166                           	global	__size_of_LigarDisplay
  4167  0021                     	__size_of_LigarDisplay	equ	__end_of_LigarDisplay-_LigarDisplay
  4168                           	
  4169  0F9A                     _LigarDisplay:	
  4170                           	opt	stack 4
  4171                           ; Regs used in _LigarDisplay: [wreg-fsr0h+status,2+status,0+pclath+cstack]
  4172                           	line	150
  4173                           	
  4174  0F9A                     l5254:	
  4175                           ;lcd_grafico.c: 150: SelecionarArea(3);
  4176  0F9A  3003               	movlw	(03h)
  4177  0F9B  120A  158A  27DD   	fcall	_SelecionarArea
              120A  158A         
  4178                           	line	151
  4179                           ;lcd_grafico.c: 151: RS(0);
  4180  0FA0  3000               	movlw	(0)
  4181  0FA1  120A  118A  21D7   	fcall	_RS
              120A  158A         
  4182                           	line	152
  4183                           	
  4184  0FA6                     l5256:	
  4185                           ;lcd_grafico.c: 152: *pinos_display.latchDADOS.latch = 0b00111111;
  4186  0FA6  303F               	movlw	(03Fh)
  4187  0FA7  00F8               	movwf	(??_LigarDisplay+0)+0
  4188  0FA8  1683               	bsf	status, 5	;RP0=1, select bank1
  4189  0FA9  1303               	bcf	status, 6	;RP1=0, select bank1
  4190  0FAA  0832               	movf	(0+_pinos_display+012h)^080h,w
  4191  0FAB  0084               	movwf	fsr0
  4192  0FAC  0878               	movf	(??_LigarDisplay+0)+0,w
  4193  0FAD  1383               	bcf	status, 7	;select IRP bank0
  4194  0FAE  0080               	movwf	indf
  4195                           	line	153
  4196                           	
  4197  0FAF                     l5258:	
  4198                           ;lcd_grafico.c: 153: Clock();
  4199  0FAF  120A  118A  205C   	fcall	_Clock
              120A  158A         
  4200                           	line	154
  4201                           	
  4202  0FB4                     l5260:	
  4203                           ;lcd_grafico.c: 154: SelecionarArea(0);
  4204  0FB4  3000               	movlw	(0)
  4205  0FB5  120A  158A  27DD   	fcall	_SelecionarArea
              120A  158A         
  4206                           	line	155
  4207                           	
  4208  0FBA                     l75:	
  4209  0FBA  0008               	return
  4210                           	opt stack 0
  4211                           GLOBAL	__end_of_LigarDisplay
  4212  0FBB                     	__end_of_LigarDisplay:
  4213 ;; =============== function _LigarDisplay ends ============
  4214                           
  4215                           	signat	_LigarDisplay,88
  4216                           	global	_EnviarDado
  4217                           psect	text660,local,class=CODE,delta=2
  4218                           global __ptext660
  4219  0FBB                     __ptext660:
  4220                           
  4221 ;; *************** function _EnviarDado *****************
  4222 ;; Defined at:
  4223 ;;		line 164 in file "C:\OD\OneDrive\Pessoal\Projetos para o GitHub\LCD Gráfico\lcd_grafico.c"
  4224 ;; Parameters:    Size  Location     Type
  4225 ;;  dado            1    wreg     unsigned char 
  4226 ;;  area            1    8[COMMON] unsigned char 
  4227 ;; Auto vars:     Size  Location     Type
  4228 ;;  dado            1   10[COMMON] unsigned char 
  4229 ;; Return value:  Size  Location     Type
  4230 ;;		None               void
  4231 ;; Registers used:
  4232 ;;		wreg, fsr0l, fsr0h, status,2, status,0, pclath, cstack
  4233 ;; Tracked objects:
  4234 ;;		On entry : 0/0
  4235 ;;		On exit  : 0/0
  4236 ;;		Unchanged: 0/0
  4237 ;; Data sizes:     COMMON   BANK0   BANK1   BANK3   BANK2
  4238 ;;      Params:         1       0       0       0       0
  4239 ;;      Locals:         1       0       0       0       0
  4240 ;;      Temps:          1       0       0       0       0
  4241 ;;      Totals:         3       0       0       0       0
  4242 ;;Total ram usage:        3 bytes
  4243 ;; Hardware stack levels used:    1
  4244 ;; Hardware stack levels required when called:    2
  4245 ;; This function calls:
  4246 ;;		_SelecionarArea
  4247 ;;		_RS
  4248 ;;		_Clock
  4249 ;; This function is called by:
  4250 ;;		_InverterCores
  4251 ;;		_Ponto
  4252 ;;		_LimparDisplay
  4253 ;; This function uses a non-reentrant model
  4254 ;;
  4255                           psect	text660
  4256                           	file	"C:\OD\OneDrive\Pessoal\Projetos para o GitHub\LCD Gráfico\lcd_grafico.c"
  4257                           	line	164
  4258                           	global	__size_of_EnviarDado
  4259  0022                     	__size_of_EnviarDado	equ	__end_of_EnviarDado-_EnviarDado
  4260                           	
  4261  0FBB                     _EnviarDado:	
  4262                           	opt	stack 4
  4263                           ; Regs used in _EnviarDado: [wreg-fsr0h+status,2+status,0+pclath+cstack]
  4264                           ;EnviarDado@dado stored from wreg
  4265  0FBB  00FA               	movwf	(EnviarDado@dado)
  4266                           	line	165
  4267                           	
  4268  0FBC                     l5246:	
  4269                           ;lcd_grafico.c: 165: SelecionarArea(area);
  4270  0FBC  0878               	movf	(EnviarDado@area),w
  4271  0FBD  120A  158A  27DD   	fcall	_SelecionarArea
              120A  158A         
  4272                           	line	166
  4273                           ;lcd_grafico.c: 166: RS(1);
  4274  0FC2  3001               	movlw	(01h)
  4275  0FC3  120A  118A  21D7   	fcall	_RS
              120A  158A         
  4276                           	line	167
  4277                           	
  4278  0FC8                     l5248:	
  4279                           ;lcd_grafico.c: 167: *pinos_display.latchDADOS.latch = dado;
  4280  0FC8  087A               	movf	(EnviarDado@dado),w
  4281  0FC9  00F9               	movwf	(??_EnviarDado+0)+0
  4282  0FCA  1683               	bsf	status, 5	;RP0=1, select bank1
  4283  0FCB  1303               	bcf	status, 6	;RP1=0, select bank1
  4284  0FCC  0832               	movf	(0+_pinos_display+012h)^080h,w
  4285  0FCD  0084               	movwf	fsr0
  4286  0FCE  0879               	movf	(??_EnviarDado+0)+0,w
  4287  0FCF  1383               	bcf	status, 7	;select IRP bank0
  4288  0FD0  0080               	movwf	indf
  4289                           	line	168
  4290                           	
  4291  0FD1                     l5250:	
  4292                           ;lcd_grafico.c: 168: Clock();
  4293  0FD1  120A  118A  205C   	fcall	_Clock
              120A  158A         
  4294                           	line	169
  4295                           	
  4296  0FD6                     l5252:	
  4297                           ;lcd_grafico.c: 169: SelecionarArea(0);
  4298  0FD6  3000               	movlw	(0)
  4299  0FD7  120A  158A  27DD   	fcall	_SelecionarArea
              120A  158A         
  4300                           	line	170
  4301                           	
  4302  0FDC                     l78:	
  4303  0FDC  0008               	return
  4304                           	opt stack 0
  4305                           GLOBAL	__end_of_EnviarDado
  4306  0FDD                     	__end_of_EnviarDado:
  4307 ;; =============== function _EnviarDado ends ============
  4308                           
  4309                           	signat	_EnviarDado,8312
  4310                           	global	_LerDado
  4311                           psect	text661,local,class=CODE,delta=2
  4312                           global __ptext661
  4313  0F5B                     __ptext661:
  4314                           
  4315 ;; *************** function _LerDado *****************
  4316 ;; Defined at:
  4317 ;;		line 189 in file "C:\OD\OneDrive\Pessoal\Projetos para o GitHub\LCD Gráfico\lcd_grafico.c"
  4318 ;; Parameters:    Size  Location     Type
  4319 ;;  area            1    wreg     unsigned char 
  4320 ;; Auto vars:     Size  Location     Type
  4321 ;;  area            1   11[COMMON] unsigned char 
  4322 ;;  leitura         1   12[COMMON] unsigned char 
  4323 ;; Return value:  Size  Location     Type
  4324 ;;                  1    wreg      unsigned char 
  4325 ;; Registers used:
  4326 ;;		wreg, fsr0l, fsr0h, status,2, status,0, pclath, cstack
  4327 ;; Tracked objects:
  4328 ;;		On entry : 0/0
  4329 ;;		On exit  : 0/0
  4330 ;;		Unchanged: 0/0
  4331 ;; Data sizes:     COMMON   BANK0   BANK1   BANK3   BANK2
  4332 ;;      Params:         0       0       0       0       0
  4333 ;;      Locals:         2       0       0       0       0
  4334 ;;      Temps:          1       0       0       0       0
  4335 ;;      Totals:         3       0       0       0       0
  4336 ;;Total ram usage:        3 bytes
  4337 ;; Hardware stack levels used:    1
  4338 ;; Hardware stack levels required when called:    2
  4339 ;; This function calls:
  4340 ;;		_SelecionarArea
  4341 ;;		_RS
  4342 ;;		_ClockComLeitura
  4343 ;; This function is called by:
  4344 ;;		_InverterCores
  4345 ;;		_NovoX
  4346 ;; This function uses a non-reentrant model
  4347 ;;
  4348                           psect	text661
  4349                           	file	"C:\OD\OneDrive\Pessoal\Projetos para o GitHub\LCD Gráfico\lcd_grafico.c"
  4350                           	line	189
  4351                           	global	__size_of_LerDado
  4352  001E                     	__size_of_LerDado	equ	__end_of_LerDado-_LerDado
  4353                           	
  4354  0F5B                     _LerDado:	
  4355                           	opt	stack 4
  4356                           ; Regs used in _LerDado: [wreg-fsr0h+status,2+status,0+pclath+cstack]
  4357                           ;LerDado@area stored from wreg
  4358                           	line	191
  4359  0F5B  00FB               	movwf	(LerDado@area)
  4360                           	
  4361  0F5C                     l5240:	
  4362                           ;lcd_grafico.c: 190: unsigned char leitura;
  4363                           ;lcd_grafico.c: 191: SelecionarArea(area);
  4364  0F5C  087B               	movf	(LerDado@area),w
  4365  0F5D  120A  158A  27DD   	fcall	_SelecionarArea
              120A  158A         
  4366                           	line	192
  4367                           ;lcd_grafico.c: 192: RS(1);
  4368  0F62  3001               	movlw	(01h)
  4369  0F63  120A  118A  21D7   	fcall	_RS
              120A  158A         
  4370                           	line	193
  4371                           ;lcd_grafico.c: 193: leitura = ClockComLeitura();
  4372  0F68  120A  118A  238B   	fcall	_ClockComLeitura
              120A  158A         
  4373  0F6D  00FA               	movwf	(??_LerDado+0)+0
  4374  0F6E  087A               	movf	(??_LerDado+0)+0,w
  4375  0F6F  00FC               	movwf	(LerDado@leitura)
  4376                           	line	194
  4377                           ;lcd_grafico.c: 194: SelecionarArea(0);
  4378  0F70  3000               	movlw	(0)
  4379  0F71  120A  158A  27DD   	fcall	_SelecionarArea
              120A  158A         
  4380                           	line	195
  4381                           	
  4382  0F76                     l5242:	
  4383                           ;lcd_grafico.c: 195: return leitura;
  4384  0F76  087C               	movf	(LerDado@leitura),w
  4385  0F77  2F78               	goto	l84
  4386                           	
  4387  0F78                     l5244:	
  4388                           	line	196
  4389                           	
  4390  0F78                     l84:	
  4391  0F78  0008               	return
  4392                           	opt stack 0
  4393                           GLOBAL	__end_of_LerDado
  4394  0F79                     	__end_of_LerDado:
  4395 ;; =============== function _LerDado ends ============
  4396                           
  4397                           	signat	_LerDado,4217
  4398                           	global	_EnderecoY
  4399                           psect	text662,local,class=CODE,delta=2
  4400                           global __ptext662
  4401  0039                     __ptext662:
  4402                           
  4403 ;; *************** function _EnderecoY *****************
  4404 ;; Defined at:
  4405 ;;		line 235 in file "C:\OD\OneDrive\Pessoal\Projetos para o GitHub\LCD Gráfico\lcd_grafico.c"
  4406 ;; Parameters:    Size  Location     Type
  4407 ;;  y               1    wreg     unsigned char 
  4408 ;;  area            1    8[COMMON] unsigned char 
  4409 ;; Auto vars:     Size  Location     Type
  4410 ;;  y               1   10[COMMON] unsigned char 
  4411 ;; Return value:  Size  Location     Type
  4412 ;;		None               void
  4413 ;; Registers used:
  4414 ;;		wreg, fsr0l, fsr0h, status,2, status,0, pclath, cstack
  4415 ;; Tracked objects:
  4416 ;;		On entry : 0/0
  4417 ;;		On exit  : 0/0
  4418 ;;		Unchanged: 0/0
  4419 ;; Data sizes:     COMMON   BANK0   BANK1   BANK3   BANK2
  4420 ;;      Params:         1       0       0       0       0
  4421 ;;      Locals:         1       0       0       0       0
  4422 ;;      Temps:          1       0       0       0       0
  4423 ;;      Totals:         3       0       0       0       0
  4424 ;;Total ram usage:        3 bytes
  4425 ;; Hardware stack levels used:    1
  4426 ;; Hardware stack levels required when called:    2
  4427 ;; This function calls:
  4428 ;;		_SelecionarArea
  4429 ;;		_RS
  4430 ;;		_Clock
  4431 ;; This function is called by:
  4432 ;;		_InverterCores
  4433 ;;		_Ponto
  4434 ;; This function uses a non-reentrant model
  4435 ;;
  4436                           psect	text662
  4437                           	file	"C:\OD\OneDrive\Pessoal\Projetos para o GitHub\LCD Gráfico\lcd_grafico.c"
  4438                           	line	235
  4439                           	global	__size_of_EnderecoY
  4440  0023                     	__size_of_EnderecoY	equ	__end_of_EnderecoY-_EnderecoY
  4441                           	
  4442  0039                     _EnderecoY:	
  4443                           	opt	stack 4
  4444                           ; Regs used in _EnderecoY: [wreg-fsr0h+status,2+status,0+pclath+cstack]
  4445                           ;EnderecoY@y stored from wreg
  4446  0039  00FA               	movwf	(EnderecoY@y)
  4447                           	line	236
  4448                           	
  4449  003A                     l5232:	
  4450                           ;lcd_grafico.c: 236: SelecionarArea(area);
  4451  003A  0878               	movf	(EnderecoY@area),w
  4452  003B  120A  158A  27DD   	fcall	_SelecionarArea
              120A  118A         
  4453                           	line	237
  4454                           ;lcd_grafico.c: 237: RS(0);
  4455  0040  3000               	movlw	(0)
  4456  0041  120A  118A  21D7   	fcall	_RS
              120A  118A         
  4457                           	line	238
  4458                           	
  4459  0046                     l5234:	
  4460                           ;lcd_grafico.c: 238: *pinos_display.latchDADOS.latch = 0b1000000 | y;
  4461  0046  087A               	movf	(EnderecoY@y),w
  4462  0047  3840               	iorlw	040h
  4463  0048  00F9               	movwf	(??_EnderecoY+0)+0
  4464  0049  1683               	bsf	status, 5	;RP0=1, select bank1
  4465  004A  1303               	bcf	status, 6	;RP1=0, select bank1
  4466  004B  0832               	movf	(0+_pinos_display+012h)^080h,w
  4467  004C  0084               	movwf	fsr0
  4468  004D  0879               	movf	(??_EnderecoY+0)+0,w
  4469  004E  1383               	bcf	status, 7	;select IRP bank0
  4470  004F  0080               	movwf	indf
  4471                           	line	239
  4472                           	
  4473  0050                     l5236:	
  4474                           ;lcd_grafico.c: 239: Clock();
  4475  0050  120A  118A  205C   	fcall	_Clock
              120A  118A         
  4476                           	line	240
  4477                           	
  4478  0055                     l5238:	
  4479                           ;lcd_grafico.c: 240: SelecionarArea(0);
  4480  0055  3000               	movlw	(0)
  4481  0056  120A  158A  27DD   	fcall	_SelecionarArea
              120A  118A         
  4482                           	line	241
  4483                           	
  4484  005B                     l95:	
  4485  005B  0008               	return
  4486                           	opt stack 0
  4487                           GLOBAL	__end_of_EnderecoY
  4488  005C                     	__end_of_EnderecoY:
  4489 ;; =============== function _EnderecoY ends ============
  4490                           
  4491                           	signat	_EnderecoY,8312
  4492                           	global	_EnderecoX
  4493                           psect	text663,local,class=CODE,delta=2
  4494                           global __ptext663
  4495  0016                     __ptext663:
  4496                           
  4497 ;; *************** function _EnderecoX *****************
  4498 ;; Defined at:
  4499 ;;		line 220 in file "C:\OD\OneDrive\Pessoal\Projetos para o GitHub\LCD Gráfico\lcd_grafico.c"
  4500 ;; Parameters:    Size  Location     Type
  4501 ;;  x               1    wreg     unsigned char 
  4502 ;;  area            1    8[COMMON] unsigned char 
  4503 ;; Auto vars:     Size  Location     Type
  4504 ;;  x               1   10[COMMON] unsigned char 
  4505 ;; Return value:  Size  Location     Type
  4506 ;;		None               void
  4507 ;; Registers used:
  4508 ;;		wreg, fsr0l, fsr0h, status,2, status,0, pclath, cstack
  4509 ;; Tracked objects:
  4510 ;;		On entry : 0/0
  4511 ;;		On exit  : 0/0
  4512 ;;		Unchanged: 0/0
  4513 ;; Data sizes:     COMMON   BANK0   BANK1   BANK3   BANK2
  4514 ;;      Params:         1       0       0       0       0
  4515 ;;      Locals:         1       0       0       0       0
  4516 ;;      Temps:          1       0       0       0       0
  4517 ;;      Totals:         3       0       0       0       0
  4518 ;;Total ram usage:        3 bytes
  4519 ;; Hardware stack levels used:    1
  4520 ;; Hardware stack levels required when called:    2
  4521 ;; This function calls:
  4522 ;;		_SelecionarArea
  4523 ;;		_RS
  4524 ;;		_Clock
  4525 ;; This function is called by:
  4526 ;;		_InverterCores
  4527 ;;		_Ponto
  4528 ;;		_LimparDisplay
  4529 ;; This function uses a non-reentrant model
  4530 ;;
  4531                           psect	text663
  4532                           	file	"C:\OD\OneDrive\Pessoal\Projetos para o GitHub\LCD Gráfico\lcd_grafico.c"
  4533                           	line	220
  4534                           	global	__size_of_EnderecoX
  4535  0023                     	__size_of_EnderecoX	equ	__end_of_EnderecoX-_EnderecoX
  4536                           	
  4537  0016                     _EnderecoX:	
  4538                           	opt	stack 4
  4539                           ; Regs used in _EnderecoX: [wreg-fsr0h+status,2+status,0+pclath+cstack]
  4540                           ;EnderecoX@x stored from wreg
  4541  0016  00FA               	movwf	(EnderecoX@x)
  4542                           	line	221
  4543                           	
  4544  0017                     l5224:	
  4545                           ;lcd_grafico.c: 221: SelecionarArea(area);
  4546  0017  0878               	movf	(EnderecoX@area),w
  4547  0018  120A  158A  27DD   	fcall	_SelecionarArea
              120A  118A         
  4548                           	line	222
  4549                           ;lcd_grafico.c: 222: RS(0);
  4550  001D  3000               	movlw	(0)
  4551  001E  120A  118A  21D7   	fcall	_RS
              120A  118A         
  4552                           	line	223
  4553                           	
  4554  0023                     l5226:	
  4555                           ;lcd_grafico.c: 223: *pinos_display.latchDADOS.latch = 0b10111000 | x;
  4556  0023  087A               	movf	(EnderecoX@x),w
  4557  0024  38B8               	iorlw	0B8h
  4558  0025  00F9               	movwf	(??_EnderecoX+0)+0
  4559  0026  1683               	bsf	status, 5	;RP0=1, select bank1
  4560  0027  1303               	bcf	status, 6	;RP1=0, select bank1
  4561  0028  0832               	movf	(0+_pinos_display+012h)^080h,w
  4562  0029  0084               	movwf	fsr0
  4563  002A  0879               	movf	(??_EnderecoX+0)+0,w
  4564  002B  1383               	bcf	status, 7	;select IRP bank0
  4565  002C  0080               	movwf	indf
  4566                           	line	224
  4567                           	
  4568  002D                     l5228:	
  4569                           ;lcd_grafico.c: 224: Clock();
  4570  002D  120A  118A  205C   	fcall	_Clock
              120A  118A         
  4571                           	line	225
  4572                           	
  4573  0032                     l5230:	
  4574                           ;lcd_grafico.c: 225: SelecionarArea(0);
  4575  0032  3000               	movlw	(0)
  4576  0033  120A  158A  27DD   	fcall	_SelecionarArea
              120A  118A         
  4577                           	line	226
  4578                           	
  4579  0038                     l92:	
  4580  0038  0008               	return
  4581                           	opt stack 0
  4582                           GLOBAL	__end_of_EnderecoX
  4583  0039                     	__end_of_EnderecoX:
  4584 ;; =============== function _EnderecoX ends ============
  4585                           
  4586                           	signat	_EnderecoX,8312
  4587                           	global	_ClockComLeitura
  4588                           psect	text664,local,class=CODE,delta=2
  4589                           global __ptext664
  4590  038B                     __ptext664:
  4591                           
  4592 ;; *************** function _ClockComLeitura *****************
  4593 ;; Defined at:
  4594 ;;		line 116 in file "C:\OD\OneDrive\Pessoal\Projetos para o GitHub\LCD Gráfico\lcd_grafico.c"
  4595 ;; Parameters:    Size  Location     Type
  4596 ;;		None
  4597 ;; Auto vars:     Size  Location     Type
  4598 ;;  leitura         1    9[COMMON] unsigned char 
  4599 ;; Return value:  Size  Location     Type
  4600 ;;                  1    wreg      unsigned char 
  4601 ;; Registers used:
  4602 ;;		wreg, fsr0l, fsr0h, status,2, status,0, pclath, cstack
  4603 ;; Tracked objects:
  4604 ;;		On entry : 0/0
  4605 ;;		On exit  : 0/0
  4606 ;;		Unchanged: 0/0
  4607 ;; Data sizes:     COMMON   BANK0   BANK1   BANK3   BANK2
  4608 ;;      Params:         0       0       0       0       0
  4609 ;;      Locals:         1       0       0       0       0
  4610 ;;      Temps:          1       0       0       0       0
  4611 ;;      Totals:         2       0       0       0       0
  4612 ;;Total ram usage:        2 bytes
  4613 ;; Hardware stack levels used:    1
  4614 ;; Hardware stack levels required when called:    1
  4615 ;; This function calls:
  4616 ;;		_RW
  4617 ;;		_E
  4618 ;;		_delayMicroseconds
  4619 ;; This function is called by:
  4620 ;;		_LerDado
  4621 ;;		_ReceberStatus
  4622 ;; This function uses a non-reentrant model
  4623 ;;
  4624                           psect	text664
  4625                           	file	"C:\OD\OneDrive\Pessoal\Projetos para o GitHub\LCD Gráfico\lcd_grafico.c"
  4626                           	line	116
  4627                           	global	__size_of_ClockComLeitura
  4628  0073                     	__size_of_ClockComLeitura	equ	__end_of_ClockComLeitura-_ClockComLeitura
  4629                           	
  4630  038B                     _ClockComLeitura:	
  4631                           	opt	stack 4
  4632                           ; Regs used in _ClockComLeitura: [wreg-fsr0h+status,2+status,0+pclath+cstack]
  4633                           	line	118
  4634                           	
  4635  038B                     l5194:	
  4636                           ;lcd_grafico.c: 117: unsigned char leitura;
  4637                           ;lcd_grafico.c: 118: *pinos_display.latchDADOS.tris = 0xFF;
  4638  038B  30FF               	movlw	(0FFh)
  4639  038C  00F8               	movwf	(??_ClockComLeitura+0)+0
  4640  038D  1683               	bsf	status, 5	;RP0=1, select bank1
  4641  038E  1303               	bcf	status, 6	;RP1=0, select bank1
  4642  038F  0833               	movf	(0+_pinos_display+013h)^080h,w
  4643  0390  0084               	movwf	fsr0
  4644  0391  0878               	movf	(??_ClockComLeitura+0)+0,w
  4645  0392  1383               	bcf	status, 7	;select IRP bank0
  4646  0393  0080               	movwf	indf
  4647                           	line	119
  4648                           	
  4649  0394                     l5196:	
  4650                           ;lcd_grafico.c: 119: RW(1);
  4651  0394  3001               	movlw	(01h)
  4652  0395  120A  118A  216D   	fcall	_RW
              120A  118A         
  4653                           	line	121
  4654                           	
  4655  039A                     l5198:	
  4656                           ;lcd_grafico.c: 121: E(1);
  4657  039A  3001               	movlw	(01h)
  4658  039B  120A  118A  21A2   	fcall	_E
              120A  118A         
  4659                           	line	122
  4660                           	
  4661  03A0                     l5200:	
  4662                           ;lcd_grafico.c: 122: delayMicroseconds(2);
  4663  03A0  3000               	movlw	0
  4664  03A1  00F3               	movwf	(?_delayMicroseconds+3)
  4665  03A2  3000               	movlw	0
  4666  03A3  00F2               	movwf	(?_delayMicroseconds+2)
  4667  03A4  3000               	movlw	0
  4668  03A5  00F1               	movwf	(?_delayMicroseconds+1)
  4669  03A6  3002               	movlw	02h
  4670  03A7  00F0               	movwf	(?_delayMicroseconds)
  4671                           
  4672  03A8  120A  118A  20D7   	fcall	_delayMicroseconds
              120A  118A         
  4673                           	line	123
  4674                           	
  4675  03AD                     l5202:	
  4676                           ;lcd_grafico.c: 123: E(0);
  4677  03AD  3000               	movlw	(0)
  4678  03AE  120A  118A  21A2   	fcall	_E
              120A  118A         
  4679                           	line	124
  4680                           	
  4681  03B3                     l5204:	
  4682                           ;lcd_grafico.c: 124: delayMicroseconds(2);
  4683  03B3  3000               	movlw	0
  4684  03B4  00F3               	movwf	(?_delayMicroseconds+3)
  4685  03B5  3000               	movlw	0
  4686  03B6  00F2               	movwf	(?_delayMicroseconds+2)
  4687  03B7  3000               	movlw	0
  4688  03B8  00F1               	movwf	(?_delayMicroseconds+1)
  4689  03B9  3002               	movlw	02h
  4690  03BA  00F0               	movwf	(?_delayMicroseconds)
  4691                           
  4692  03BB  120A  118A  20D7   	fcall	_delayMicroseconds
              120A  118A         
  4693                           	line	125
  4694                           	
  4695  03C0                     l5206:	
  4696                           ;lcd_grafico.c: 125: E(1);
  4697  03C0  3001               	movlw	(01h)
  4698  03C1  120A  118A  21A2   	fcall	_E
              120A  118A         
  4699                           	line	126
  4700                           	
  4701  03C6                     l5208:	
  4702                           ;lcd_grafico.c: 126: delayMicroseconds(5);
  4703  03C6  3000               	movlw	0
  4704  03C7  00F3               	movwf	(?_delayMicroseconds+3)
  4705  03C8  3000               	movlw	0
  4706  03C9  00F2               	movwf	(?_delayMicroseconds+2)
  4707  03CA  3000               	movlw	0
  4708  03CB  00F1               	movwf	(?_delayMicroseconds+1)
  4709  03CC  3005               	movlw	05h
  4710  03CD  00F0               	movwf	(?_delayMicroseconds)
  4711                           
  4712  03CE  120A  118A  20D7   	fcall	_delayMicroseconds
              120A  118A         
  4713                           	line	127
  4714                           	
  4715  03D3                     l5210:	
  4716                           ;lcd_grafico.c: 127: leitura = *pinos_display.latchDADOS.latch;
  4717  03D3  1683               	bsf	status, 5	;RP0=1, select bank1
  4718  03D4  1303               	bcf	status, 6	;RP1=0, select bank1
  4719  03D5  0832               	movf	(0+_pinos_display+012h)^080h,w
  4720  03D6  0084               	movwf	fsr0
  4721  03D7  1383               	bcf	status, 7	;select IRP bank0
  4722  03D8  0800               	movf	indf,w
  4723  03D9  00F8               	movwf	(??_ClockComLeitura+0)+0
  4724  03DA  0878               	movf	(??_ClockComLeitura+0)+0,w
  4725  03DB  00F9               	movwf	(ClockComLeitura@leitura)
  4726                           	line	128
  4727                           	
  4728  03DC                     l5212:	
  4729                           ;lcd_grafico.c: 128: E(0);
  4730  03DC  3000               	movlw	(0)
  4731  03DD  120A  118A  21A2   	fcall	_E
              120A  118A         
  4732                           	line	129
  4733                           	
  4734  03E2                     l5214:	
  4735                           ;lcd_grafico.c: 129: RW(0);
  4736  03E2  3000               	movlw	(0)
  4737  03E3  120A  118A  216D   	fcall	_RW
              120A  118A         
  4738                           	line	130
  4739                           	
  4740  03E8                     l5216:	
  4741                           ;lcd_grafico.c: 130: *pinos_display.latchDADOS.tris = 0x00;
  4742  03E8  1683               	bsf	status, 5	;RP0=1, select bank1
  4743  03E9  1303               	bcf	status, 6	;RP1=0, select bank1
  4744  03EA  0833               	movf	(0+_pinos_display+013h)^080h,w
  4745  03EB  0084               	movwf	fsr0
  4746  03EC  1383               	bcf	status, 7	;select IRP bank0
  4747  03ED  0180               	clrf	indf
  4748                           	line	131
  4749                           	
  4750  03EE                     l5218:	
  4751                           ;lcd_grafico.c: 131: delayMicroseconds(15);
  4752  03EE  3000               	movlw	0
  4753  03EF  00F3               	movwf	(?_delayMicroseconds+3)
  4754  03F0  3000               	movlw	0
  4755  03F1  00F2               	movwf	(?_delayMicroseconds+2)
  4756  03F2  3000               	movlw	0
  4757  03F3  00F1               	movwf	(?_delayMicroseconds+1)
  4758  03F4  300F               	movlw	0Fh
  4759  03F5  00F0               	movwf	(?_delayMicroseconds)
  4760                           
  4761  03F6  120A  118A  20D7   	fcall	_delayMicroseconds
              120A  118A         
  4762                           	line	132
  4763                           	
  4764  03FB                     l5220:	
  4765                           ;lcd_grafico.c: 132: return leitura;
  4766  03FB  0879               	movf	(ClockComLeitura@leitura),w
  4767  03FC  2BFD               	goto	l69
  4768                           	
  4769  03FD                     l5222:	
  4770                           	line	133
  4771                           	
  4772  03FD                     l69:	
  4773  03FD  0008               	return
  4774                           	opt stack 0
  4775                           GLOBAL	__end_of_ClockComLeitura
  4776  03FE                     	__end_of_ClockComLeitura:
  4777 ;; =============== function _ClockComLeitura ends ============
  4778                           
  4779                           	signat	_ClockComLeitura,89
  4780                           	global	_Clock
  4781                           psect	text665,local,class=CODE,delta=2
  4782                           global __ptext665
  4783  005C                     __ptext665:
  4784                           
  4785 ;; *************** function _Clock *****************
  4786 ;; Defined at:
  4787 ;;		line 104 in file "C:\OD\OneDrive\Pessoal\Projetos para o GitHub\LCD Gráfico\lcd_grafico.c"
  4788 ;; Parameters:    Size  Location     Type
  4789 ;;		None
  4790 ;; Auto vars:     Size  Location     Type
  4791 ;;		None
  4792 ;; Return value:  Size  Location     Type
  4793 ;;		None               void
  4794 ;; Registers used:
  4795 ;;		wreg, fsr0l, fsr0h, status,2, status,0, pclath, cstack
  4796 ;; Tracked objects:
  4797 ;;		On entry : 0/0
  4798 ;;		On exit  : 0/0
  4799 ;;		Unchanged: 0/0
  4800 ;; Data sizes:     COMMON   BANK0   BANK1   BANK3   BANK2
  4801 ;;      Params:         0       0       0       0       0
  4802 ;;      Locals:         0       0       0       0       0
  4803 ;;      Temps:          0       0       0       0       0
  4804 ;;      Totals:         0       0       0       0       0
  4805 ;;Total ram usage:        0 bytes
  4806 ;; Hardware stack levels used:    1
  4807 ;; Hardware stack levels required when called:    1
  4808 ;; This function calls:
  4809 ;;		_E
  4810 ;;		_delayMicroseconds
  4811 ;; This function is called by:
  4812 ;;		_LigarDisplay
  4813 ;;		_EnviarDado
  4814 ;;		_EnderecoX
  4815 ;;		_EnderecoY
  4816 ;;		_DesligarDisplay
  4817 ;; This function uses a non-reentrant model
  4818 ;;
  4819                           psect	text665
  4820                           	file	"C:\OD\OneDrive\Pessoal\Projetos para o GitHub\LCD Gráfico\lcd_grafico.c"
  4821                           	line	104
  4822                           	global	__size_of_Clock
  4823  0027                     	__size_of_Clock	equ	__end_of_Clock-_Clock
  4824                           	
  4825  005C                     _Clock:	
  4826                           	opt	stack 4
  4827                           ; Regs used in _Clock: [wreg-fsr0h+status,2+status,0+pclath+cstack]
  4828                           	line	105
  4829                           	
  4830  005C                     l5188:	
  4831                           ;lcd_grafico.c: 105: E(1);
  4832  005C  3001               	movlw	(01h)
  4833  005D  120A  118A  21A2   	fcall	_E
              120A  118A         
  4834                           	line	106
  4835                           	
  4836  0062                     l5190:	
  4837                           ;lcd_grafico.c: 106: delayMicroseconds(2);
  4838  0062  3000               	movlw	0
  4839  0063  00F3               	movwf	(?_delayMicroseconds+3)
  4840  0064  3000               	movlw	0
  4841  0065  00F2               	movwf	(?_delayMicroseconds+2)
  4842  0066  3000               	movlw	0
  4843  0067  00F1               	movwf	(?_delayMicroseconds+1)
  4844  0068  3002               	movlw	02h
  4845  0069  00F0               	movwf	(?_delayMicroseconds)
  4846                           
  4847  006A  120A  118A  20D7   	fcall	_delayMicroseconds
              120A  118A         
  4848                           	line	107
  4849                           	
  4850  006F                     l5192:	
  4851                           ;lcd_grafico.c: 107: E(0);
  4852  006F  3000               	movlw	(0)
  4853  0070  120A  118A  21A2   	fcall	_E
              120A  118A         
  4854                           	line	108
  4855                           ;lcd_grafico.c: 108: delayMicroseconds(10);
  4856  0075  3000               	movlw	0
  4857  0076  00F3               	movwf	(?_delayMicroseconds+3)
  4858  0077  3000               	movlw	0
  4859  0078  00F2               	movwf	(?_delayMicroseconds+2)
  4860  0079  3000               	movlw	0
  4861  007A  00F1               	movwf	(?_delayMicroseconds+1)
  4862  007B  300A               	movlw	0Ah
  4863  007C  00F0               	movwf	(?_delayMicroseconds)
  4864                           
  4865  007D  120A  118A  20D7   	fcall	_delayMicroseconds
              120A  118A         
  4866                           	line	109
  4867                           	
  4868  0082                     l66:	
  4869  0082  0008               	return
  4870                           	opt stack 0
  4871                           GLOBAL	__end_of_Clock
  4872  0083                     	__end_of_Clock:
  4873 ;; =============== function _Clock ends ============
  4874                           
  4875                           	signat	_Clock,88
  4876                           	global	_JustificarDireita
  4877                           psect	text666,local,class=CODE,delta=2
  4878                           global __ptext666
  4879  0006                     __ptext666:
  4880                           
  4881 ;; *************** function _JustificarDireita *****************
  4882 ;; Defined at:
  4883 ;;		line 23 in file "C:\OD\OneDrive\Pessoal\Projetos para o GitHub\LCD Gráfico\recursos_texto.c"
  4884 ;; Parameters:    Size  Location     Type
  4885 ;;  tamanho_fras    1    wreg     unsigned char 
  4886 ;; Auto vars:     Size  Location     Type
  4887 ;;  tamanho_fras    1    5[COMMON] unsigned char 
  4888 ;; Return value:  Size  Location     Type
  4889 ;;                  1    wreg      unsigned char 
  4890 ;; Registers used:
  4891 ;;		wreg, status,2, status,0, pclath, cstack
  4892 ;; Tracked objects:
  4893 ;;		On entry : 0/0
  4894 ;;		On exit  : 0/0
  4895 ;;		Unchanged: 0/0
  4896 ;; Data sizes:     COMMON   BANK0   BANK1   BANK3   BANK2
  4897 ;;      Params:         0       0       0       0       0
  4898 ;;      Locals:         1       0       0       0       0
  4899 ;;      Temps:          1       0       0       0       0
  4900 ;;      Totals:         2       0       0       0       0
  4901 ;;Total ram usage:        2 bytes
  4902 ;; Hardware stack levels used:    1
  4903 ;; Hardware stack levels required when called:    1
  4904 ;; This function calls:
  4905 ;;		___bmul
  4906 ;; This function is called by:
  4907 ;;		_main
  4908 ;; This function uses a non-reentrant model
  4909 ;;
  4910                           psect	text666
  4911                           	file	"C:\OD\OneDrive\Pessoal\Projetos para o GitHub\LCD Gráfico\recursos_texto.c"
  4912                           	line	23
  4913                           	global	__size_of_JustificarDireita
  4914  0010                     	__size_of_JustificarDireita	equ	__end_of_JustificarDireita-_JustificarDireita
  4915                           	
  4916  0006                     _JustificarDireita:	
  4917                           	opt	stack 6
  4918                           ; Regs used in _JustificarDireita: [wreg+status,2+status,0+pclath+cstack]
  4919                           ;JustificarDireita@tamanho_frase stored from wreg
  4920  0006  00F5               	movwf	(JustificarDireita@tamanho_frase)
  4921                           	line	24
  4922                           	
  4923  0007                     l5184:	
  4924                           ;recursos_texto.c: 24: return 128 - (tamanho_frase * (5 + 1));
  4925  0007  3006               	movlw	(06h)
  4926  0008  00F4               	movwf	(??_JustificarDireita+0)+0
  4927  0009  0874               	movf	(??_JustificarDireita+0)+0,w
  4928  000A  00F0               	movwf	(?___bmul)
  4929  000B  0875               	movf	(JustificarDireita@tamanho_frase),w
  4930  000C  120A  158A  2743   	fcall	___bmul
              120A  118A         
  4931  0011  3AFF               	xorlw	0ffh
  4932  0012  3E01               	addlw	1
  4933  0013  3E80               	addlw	080h
  4934  0014  2815               	goto	l139
  4935                           	
  4936  0015                     l5186:	
  4937                           	line	25
  4938                           	
  4939  0015                     l139:	
  4940  0015  0008               	return
  4941                           	opt stack 0
  4942                           GLOBAL	__end_of_JustificarDireita
  4943  0016                     	__end_of_JustificarDireita:
  4944 ;; =============== function _JustificarDireita ends ============
  4945                           
  4946                           	signat	_JustificarDireita,4217
  4947                           	global	_Centralizar
  4948                           psect	text667,local,class=CODE,delta=2
  4949                           global __ptext667
  4950  00AD                     __ptext667:
  4951                           
  4952 ;; *************** function _Centralizar *****************
  4953 ;; Defined at:
  4954 ;;		line 12 in file "C:\OD\OneDrive\Pessoal\Projetos para o GitHub\LCD Gráfico\recursos_texto.c"
  4955 ;; Parameters:    Size  Location     Type
  4956 ;;  tamanho_fras    1    wreg     unsigned char 
  4957 ;; Auto vars:     Size  Location     Type
  4958 ;;  tamanho_fras    1   12[COMMON] unsigned char 
  4959 ;; Return value:  Size  Location     Type
  4960 ;;                  1    wreg      unsigned char 
  4961 ;; Registers used:
  4962 ;;		wreg, status,2, status,0, btemp+1, pclath, cstack
  4963 ;; Tracked objects:
  4964 ;;		On entry : 0/0
  4965 ;;		On exit  : 0/0
  4966 ;;		Unchanged: 0/0
  4967 ;; Data sizes:     COMMON   BANK0   BANK1   BANK3   BANK2
  4968 ;;      Params:         0       0       0       0       0
  4969 ;;      Locals:         1       0       0       0       0
  4970 ;;      Temps:          6       0       0       0       0
  4971 ;;      Totals:         7       0       0       0       0
  4972 ;;Total ram usage:        7 bytes
  4973 ;; Hardware stack levels used:    1
  4974 ;; Hardware stack levels required when called:    1
  4975 ;; This function calls:
  4976 ;;		___wmul
  4977 ;; This function is called by:
  4978 ;;		_main
  4979 ;; This function uses a non-reentrant model
  4980 ;;
  4981                           psect	text667
  4982                           	file	"C:\OD\OneDrive\Pessoal\Projetos para o GitHub\LCD Gráfico\recursos_texto.c"
  4983                           	line	12
  4984                           	global	__size_of_Centralizar
  4985  002A                     	__size_of_Centralizar	equ	__end_of_Centralizar-_Centralizar
  4986                           	
  4987  00AD                     _Centralizar:	
  4988                           	opt	stack 6
  4989                           ; Regs used in _Centralizar: [wreg+status,2+status,0+btemp+1+pclath+cstack]
  4990                           ;Centralizar@tamanho_frase stored from wreg
  4991  00AD  00FC               	movwf	(Centralizar@tamanho_frase)
  4992                           	line	13
  4993                           	
  4994  00AE                     l5180:	
  4995                           ;recursos_texto.c: 13: return (128 - (tamanho_frase * (5 + 1))) >> 1;
  4996  00AE  087C               	movf	(Centralizar@tamanho_frase),w
  4997  00AF  00F6               	movwf	(??_Centralizar+0)+0
  4998  00B0  01F7               	clrf	(??_Centralizar+0)+0+1
  4999  00B1  0876               	movf	0+(??_Centralizar+0)+0,w
  5000  00B2  00F0               	movwf	(?___wmul)
  5001  00B3  0877               	movf	1+(??_Centralizar+0)+0,w
  5002  00B4  00F1               	movwf	(?___wmul+1)
  5003  00B5  3006               	movlw	low(06h)
  5004  00B6  00F2               	movwf	0+(?___wmul)+02h
  5005  00B7  3000               	movlw	high(06h)
  5006  00B8  00F3               	movwf	(0+(?___wmul)+02h)+1
  5007  00B9  120A  118A  2083   	fcall	___wmul
              120A  118A         
  5008  00BE  0970               	comf	(0+(?___wmul)),w
  5009  00BF  00F8               	movwf	(??_Centralizar+2)+0
  5010  00C0  0971               	comf	(1+(?___wmul)),w
  5011  00C1  00F9               	movwf	((??_Centralizar+2)+0+1)
  5012  00C2  0AF8               	incf	(??_Centralizar+2)+0,f
  5013  00C3  1903               	skipnz
  5014  00C4  0AF9               	incf	((??_Centralizar+2)+0+1),f
  5015  00C5  0878               	movf	0+(??_Centralizar+2)+0,w
  5016  00C6  3E80               	addlw	low(080h)
  5017  00C7  00FA               	movwf	(??_Centralizar+4)+0
  5018  00C8  0879               	movf	1+(??_Centralizar+2)+0,w
  5019  00C9  1803               	skipnc
  5020  00CA  3E01               	addlw	1
  5021  00CB  3E00               	addlw	high(080h)
  5022  00CC  00FB               	movwf	1+(??_Centralizar+4)+0
  5023  00CD  3001               	movlw	01h
  5024  00CE  00FF               	movwf	btemp+1
  5025  00CF                     u3285:
  5026  00CF  0D7B               	rlf	(??_Centralizar+4)+1,w
  5027  00D0  0CFB               	rrf	(??_Centralizar+4)+1,f
  5028  00D1  0CFA               	rrf	(??_Centralizar+4)+0,f
  5029  00D2  0BFF               	decfsz	btemp+1,f
  5030  00D3  28CF               	goto	u3285
  5031  00D4  087A               	movf	0+(??_Centralizar+4)+0,w
  5032  00D5  28D6               	goto	l136
  5033                           	
  5034  00D6                     l5182:	
  5035                           	line	14
  5036                           	
  5037  00D6                     l136:	
  5038  00D6  0008               	return
  5039                           	opt stack 0
  5040                           GLOBAL	__end_of_Centralizar
  5041  00D7                     	__end_of_Centralizar:
  5042 ;; =============== function _Centralizar ends ============
  5043                           
  5044                           	signat	_Centralizar,4217
  5045                           	global	_SelecionarArea
  5046                           psect	text668,local,class=CODE,delta=2
  5047                           global __ptext668
  5048  0FDD                     __ptext668:
  5049                           
  5050 ;; *************** function _SelecionarArea *****************
  5051 ;; Defined at:
  5052 ;;		line 208 in file "C:\OD\OneDrive\Pessoal\Projetos para o GitHub\LCD Gráfico\lcd_grafico.c"
  5053 ;; Parameters:    Size  Location     Type
  5054 ;;  area            1    wreg     unsigned char 
  5055 ;; Auto vars:     Size  Location     Type
  5056 ;;  area            1    4[COMMON] unsigned char 
  5057 ;; Return value:  Size  Location     Type
  5058 ;;		None               void
  5059 ;; Registers used:
  5060 ;;		wreg, fsr0l, fsr0h, status,2, status,0, pclath, cstack
  5061 ;; Tracked objects:
  5062 ;;		On entry : 0/0
  5063 ;;		On exit  : 0/0
  5064 ;;		Unchanged: 0/0
  5065 ;; Data sizes:     COMMON   BANK0   BANK1   BANK3   BANK2
  5066 ;;      Params:         0       0       0       0       0
  5067 ;;      Locals:         2       0       0       0       0
  5068 ;;      Temps:          0       0       0       0       0
  5069 ;;      Totals:         2       0       0       0       0
  5070 ;;Total ram usage:        2 bytes
  5071 ;; Hardware stack levels used:    1
  5072 ;; Hardware stack levels required when called:    1
  5073 ;; This function calls:
  5074 ;;		_CS1
  5075 ;;		_CS2
  5076 ;; This function is called by:
  5077 ;;		_LigarDisplay
  5078 ;;		_EnviarDado
  5079 ;;		_LerDado
  5080 ;;		_EnderecoX
  5081 ;;		_EnderecoY
  5082 ;;		_DesligarDisplay
  5083 ;; This function uses a non-reentrant model
  5084 ;;
  5085                           psect	text668
  5086                           	file	"C:\OD\OneDrive\Pessoal\Projetos para o GitHub\LCD Gráfico\lcd_grafico.c"
  5087                           	line	208
  5088                           	global	__size_of_SelecionarArea
  5089  0023                     	__size_of_SelecionarArea	equ	__end_of_SelecionarArea-_SelecionarArea
  5090                           	
  5091  0FDD                     _SelecionarArea:	
  5092                           	opt	stack 4
  5093                           ; Regs used in _SelecionarArea: [wreg-fsr0h+status,2+status,0+pclath+cstack]
  5094                           ;SelecionarArea@area stored from wreg
  5095  0FDD  00F4               	movwf	(SelecionarArea@area)
  5096                           	line	209
  5097                           	
  5098  0FDE                     l5170:	
  5099                           ;lcd_grafico.c: 209: CS1(area == 1 || area == 3);
  5100  0FDE  01F3               	clrf	(_SelecionarArea$204)
  5101  0FDF  1403               	bsf	status,0
  5102  0FE0  0DF3               	rlf	(_SelecionarArea$204),f
  5103                           	
  5104  0FE1                     l5172:	
  5105  0FE1  0874               	movf	(SelecionarArea@area),w
  5106  0FE2  3A01               	xorlw	01h
  5107  0FE3  1903               	skipnz
  5108  0FE4  2FE6               	goto	u3261
  5109  0FE5  2FE7               	goto	u3260
  5110  0FE6                     u3261:
  5111  0FE6  2FEF               	goto	l5178
  5112  0FE7                     u3260:
  5113                           	
  5114  0FE7                     l5174:	
  5115  0FE7  0874               	movf	(SelecionarArea@area),w
  5116  0FE8  3A03               	xorlw	03h
  5117  0FE9  1903               	skipnz
  5118  0FEA  2FEC               	goto	u3271
  5119  0FEB  2FED               	goto	u3270
  5120  0FEC                     u3271:
  5121  0FEC  2FEF               	goto	l5178
  5122  0FED                     u3270:
  5123                           	
  5124  0FED                     l5176:	
  5125  0FED  01F3               	clrf	(_SelecionarArea$204)
  5126  0FEE  2FEF               	goto	l5178
  5127                           	
  5128  0FEF                     l88:	
  5129                           	
  5130  0FEF                     l5178:	
  5131  0FEF  0873               	movf	(_SelecionarArea$204),w
  5132  0FF0  120A  118A  220C   	fcall	_CS1
              120A  158A         
  5133                           	line	210
  5134                           ;lcd_grafico.c: 210: CS2(area >= 2);
  5135  0FF5  3002               	movlw	(02h)
  5136  0FF6  0274               	subwf	(SelecionarArea@area),w
  5137  0FF7  3000               	movlw	0
  5138  0FF8  1803               	skipnc
  5139  0FF9  3001               	movlw	1
  5140  0FFA  120A  118A  2248   	fcall	_CS2
              120A  158A         
  5141                           	line	211
  5142                           	
  5143  0FFF                     l89:	
  5144  0FFF  0008               	return
  5145                           	opt stack 0
  5146                           GLOBAL	__end_of_SelecionarArea
  5147  1000                     	__end_of_SelecionarArea:
  5148 ;; =============== function _SelecionarArea ends ============
  5149                           
  5150                           	signat	_SelecionarArea,4216
  5151                           	global	_delayMicroseconds
  5152                           psect	text669,local,class=CODE,delta=2
  5153                           global __ptext669
  5154  00D7                     __ptext669:
  5155                           
  5156 ;; *************** function _delayMicroseconds *****************
  5157 ;; Defined at:
  5158 ;;		line 23 in file "C:\OD\OneDrive\Pessoal\Projetos para o GitHub\LCD Gráfico\delays.c"
  5159 ;; Parameters:    Size  Location     Type
  5160 ;;  us              4    0[COMMON] unsigned long 
  5161 ;; Auto vars:     Size  Location     Type
  5162 ;;  t               4    4[COMMON] unsigned long 
  5163 ;; Return value:  Size  Location     Type
  5164 ;;		None               void
  5165 ;; Registers used:
  5166 ;;		wreg
  5167 ;; Tracked objects:
  5168 ;;		On entry : 0/0
  5169 ;;		On exit  : 0/0
  5170 ;;		Unchanged: 0/0
  5171 ;; Data sizes:     COMMON   BANK0   BANK1   BANK3   BANK2
  5172 ;;      Params:         4       0       0       0       0
  5173 ;;      Locals:         4       0       0       0       0
  5174 ;;      Temps:          0       0       0       0       0
  5175 ;;      Totals:         8       0       0       0       0
  5176 ;;Total ram usage:        8 bytes
  5177 ;; Hardware stack levels used:    1
  5178 ;; This function calls:
  5179 ;;		Nothing
  5180 ;; This function is called by:
  5181 ;;		_Clock
  5182 ;;		_ClockComLeitura
  5183 ;; This function uses a non-reentrant model
  5184 ;;
  5185                           psect	text669
  5186                           	file	"C:\OD\OneDrive\Pessoal\Projetos para o GitHub\LCD Gráfico\delays.c"
  5187                           	line	23
  5188                           	global	__size_of_delayMicroseconds
  5189  002E                     	__size_of_delayMicroseconds	equ	__end_of_delayMicroseconds-_delayMicroseconds
  5190                           	
  5191  00D7                     _delayMicroseconds:	
  5192                           	opt	stack 4
  5193                           ; Regs used in _delayMicroseconds: [wreg]
  5194                           	line	26
  5195                           	
  5196  00D7                     l5166:	
  5197                           ;delays.c: 25: unsigned long t;
  5198                           ;delays.c: 26: for(t = 0; t < us; t++)
  5199  00D7  3000               	movlw	0
  5200  00D8  00F7               	movwf	(delayMicroseconds@t+3)
  5201  00D9  3000               	movlw	0
  5202  00DA  00F6               	movwf	(delayMicroseconds@t+2)
  5203  00DB  3000               	movlw	0
  5204  00DC  00F5               	movwf	(delayMicroseconds@t+1)
  5205  00DD  3000               	movlw	0
  5206  00DE  00F4               	movwf	(delayMicroseconds@t)
  5207                           
  5208  00DF  28F1               	goto	l2167
  5209                           	line	27
  5210                           	
  5211  00E0                     l2168:	
  5212                           ;delays.c: 27: _delay((unsigned long)((1)*(20000000/4000000.0)));
  5213                           		opt asmopt_off
  5214  00E0  28E1               	nop2	;2 cycle nop
  5215                           	opt asmopt_on
  5216                           	opt asmopt_off
  5217  00E1  28E2               	nop2	;2 cycle nop
  5218                           	opt asmopt_on
  5219                           	opt asmopt_off
  5220  00E2  0064               	clrwdt
  5221                           	opt asmopt_on
  5222                           
  5223                           	line	26
  5224                           	
  5225  00E3                     l5168:	
  5226  00E3  3001               	movlw	01h
  5227  00E4  07F4               	addwf	(delayMicroseconds@t),f
  5228  00E5  3000               	movlw	0
  5229  00E6  1803               	skipnc
  5230  00E7  3001               movlw 1
  5231  00E8  07F5               	addwf	(delayMicroseconds@t+1),f
  5232  00E9  3000               	movlw	0
  5233  00EA  1803               	skipnc
  5234  00EB  3001               movlw 1
  5235  00EC  07F6               	addwf	(delayMicroseconds@t+2),f
  5236  00ED  3000               	movlw	0
  5237  00EE  1803               	skipnc
  5238  00EF  3001               movlw 1
  5239  00F0  07F7               	addwf	(delayMicroseconds@t+3),f
  5240                           	
  5241  00F1                     l2167:	
  5242  00F1  0873               	movf	(delayMicroseconds@us+3),w
  5243  00F2  0277               	subwf	(delayMicroseconds@t+3),w
  5244  00F3  1D03               	skipz
  5245  00F4  28FF               	goto	u3255
  5246  00F5  0872               	movf	(delayMicroseconds@us+2),w
  5247  00F6  0276               	subwf	(delayMicroseconds@t+2),w
  5248  00F7  1D03               	skipz
  5249  00F8  28FF               	goto	u3255
  5250  00F9  0871               	movf	(delayMicroseconds@us+1),w
  5251  00FA  0275               	subwf	(delayMicroseconds@t+1),w
  5252  00FB  1D03               	skipz
  5253  00FC  28FF               	goto	u3255
  5254  00FD  0870               	movf	(delayMicroseconds@us),w
  5255  00FE  0274               	subwf	(delayMicroseconds@t),w
  5256  00FF                     u3255:
  5257  00FF  1C03               	skipc
  5258  0100  2902               	goto	u3251
  5259  0101  2903               	goto	u3250
  5260  0102                     u3251:
  5261  0102  28E0               	goto	l2168
  5262  0103                     u3250:
  5263  0103  2904               	goto	l2170
  5264                           	
  5265  0104                     l2169:	
  5266                           	line	28
  5267                           	
  5268  0104                     l2170:	
  5269  0104  0008               	return
  5270                           	opt stack 0
  5271                           GLOBAL	__end_of_delayMicroseconds
  5272  0105                     	__end_of_delayMicroseconds:
  5273 ;; =============== function _delayMicroseconds ends ============
  5274                           
  5275                           	signat	_delayMicroseconds,4216
  5276                           	global	_delay
  5277                           psect	text670,local,class=CODE,delta=2
  5278                           global __ptext670
  5279  0105                     __ptext670:
  5280                           
  5281 ;; *************** function _delay *****************
  5282 ;; Defined at:
  5283 ;;		line 10 in file "C:\OD\OneDrive\Pessoal\Projetos para o GitHub\LCD Gráfico\delays.c"
  5284 ;; Parameters:    Size  Location     Type
  5285 ;;  ms              4    0[COMMON] unsigned long 
  5286 ;; Auto vars:     Size  Location     Type
  5287 ;;  t               4    6[COMMON] unsigned long 
  5288 ;; Return value:  Size  Location     Type
  5289 ;;		None               void
  5290 ;; Registers used:
  5291 ;;		wreg
  5292 ;; Tracked objects:
  5293 ;;		On entry : 0/0
  5294 ;;		On exit  : 0/0
  5295 ;;		Unchanged: 0/0
  5296 ;; Data sizes:     COMMON   BANK0   BANK1   BANK3   BANK2
  5297 ;;      Params:         4       0       0       0       0
  5298 ;;      Locals:         4       0       0       0       0
  5299 ;;      Temps:          2       0       0       0       0
  5300 ;;      Totals:        10       0       0       0       0
  5301 ;;Total ram usage:       10 bytes
  5302 ;; Hardware stack levels used:    1
  5303 ;; This function calls:
  5304 ;;		Nothing
  5305 ;; This function is called by:
  5306 ;;		_InicializarDisplay
  5307 ;;		_main
  5308 ;; This function uses a non-reentrant model
  5309 ;;
  5310                           psect	text670
  5311                           	file	"C:\OD\OneDrive\Pessoal\Projetos para o GitHub\LCD Gráfico\delays.c"
  5312                           	line	10
  5313                           	global	__size_of_delay
  5314  0033                     	__size_of_delay	equ	__end_of_delay-_delay
  5315                           	
  5316  0105                     _delay:	
  5317                           	opt	stack 7
  5318                           ; Regs used in _delay: [wreg]
  5319                           	line	13
  5320                           	
  5321  0105                     l5162:	
  5322                           ;delays.c: 12: unsigned long t;
  5323                           ;delays.c: 13: for(t = 0; t < ms; t++)
  5324  0105  3000               	movlw	0
  5325  0106  00F9               	movwf	(delay@t+3)
  5326  0107  3000               	movlw	0
  5327  0108  00F8               	movwf	(delay@t+2)
  5328  0109  3000               	movlw	0
  5329  010A  00F7               	movwf	(delay@t+1)
  5330  010B  3000               	movlw	0
  5331  010C  00F6               	movwf	(delay@t)
  5332                           
  5333  010D  2924               	goto	l2161
  5334                           	line	14
  5335                           	
  5336  010E                     l2162:	
  5337                           	
  5338  010E                     l5164:	
  5339                           ;delays.c: 14: _delay((unsigned long)((1)*(20000000/4000.0)));
  5340                           	opt asmopt_off
  5341  010E  3007               movlw	7
  5342  010F  00F5               movwf	((??_delay+0)+0+1),f
  5343  0110  307D               	movlw	125
  5344  0111  00F4               movwf	((??_delay+0)+0),f
  5345  0112                     u3627:
  5346  0112  0BF4               	decfsz	((??_delay+0)+0),f
  5347  0113  2912               	goto	u3627
  5348  0114  0BF5               	decfsz	((??_delay+0)+0+1),f
  5349  0115  2912               	goto	u3627
  5350                           opt asmopt_on
  5351                           
  5352                           	line	13
  5353  0116  3001               	movlw	01h
  5354  0117  07F6               	addwf	(delay@t),f
  5355  0118  3000               	movlw	0
  5356  0119  1803               	skipnc
  5357  011A  3001               movlw 1
  5358  011B  07F7               	addwf	(delay@t+1),f
  5359  011C  3000               	movlw	0
  5360  011D  1803               	skipnc
  5361  011E  3001               movlw 1
  5362  011F  07F8               	addwf	(delay@t+2),f
  5363  0120  3000               	movlw	0
  5364  0121  1803               	skipnc
  5365  0122  3001               movlw 1
  5366  0123  07F9               	addwf	(delay@t+3),f
  5367                           	
  5368  0124                     l2161:	
  5369  0124  0873               	movf	(delay@ms+3),w
  5370  0125  0279               	subwf	(delay@t+3),w
  5371  0126  1D03               	skipz
  5372  0127  2932               	goto	u3245
  5373  0128  0872               	movf	(delay@ms+2),w
  5374  0129  0278               	subwf	(delay@t+2),w
  5375  012A  1D03               	skipz
  5376  012B  2932               	goto	u3245
  5377  012C  0871               	movf	(delay@ms+1),w
  5378  012D  0277               	subwf	(delay@t+1),w
  5379  012E  1D03               	skipz
  5380  012F  2932               	goto	u3245
  5381  0130  0870               	movf	(delay@ms),w
  5382  0131  0276               	subwf	(delay@t),w
  5383  0132                     u3245:
  5384  0132  1C03               	skipc
  5385  0133  2935               	goto	u3241
  5386  0134  2936               	goto	u3240
  5387  0135                     u3241:
  5388  0135  290E               	goto	l5164
  5389  0136                     u3240:
  5390  0136  2937               	goto	l2164
  5391                           	
  5392  0137                     l2163:	
  5393                           	line	15
  5394                           	
  5395  0137                     l2164:	
  5396  0137  0008               	return
  5397                           	opt stack 0
  5398                           GLOBAL	__end_of_delay
  5399  0138                     	__end_of_delay:
  5400 ;; =============== function _delay ends ============
  5401                           
  5402                           	signat	_delay,4216
  5403                           	global	___wmul
  5404                           psect	text671,local,class=CODE,delta=2
  5405                           global __ptext671
  5406  0083                     __ptext671:
  5407                           
  5408 ;; *************** function ___wmul *****************
  5409 ;; Defined at:
  5410 ;;		line 3 in file "C:\Program Files (x86)\HI-TECH Software\PICC\9.83\sources\wmul.c"
  5411 ;; Parameters:    Size  Location     Type
  5412 ;;  multiplier      2    0[COMMON] unsigned int 
  5413 ;;  multiplicand    2    2[COMMON] unsigned int 
  5414 ;; Auto vars:     Size  Location     Type
  5415 ;;  product         2    4[COMMON] unsigned int 
  5416 ;; Return value:  Size  Location     Type
  5417 ;;                  2    0[COMMON] unsigned int 
  5418 ;; Registers used:
  5419 ;;		wreg, status,2, status,0
  5420 ;; Tracked objects:
  5421 ;;		On entry : 0/0
  5422 ;;		On exit  : 0/0
  5423 ;;		Unchanged: 0/0
  5424 ;; Data sizes:     COMMON   BANK0   BANK1   BANK3   BANK2
  5425 ;;      Params:         4       0       0       0       0
  5426 ;;      Locals:         2       0       0       0       0
  5427 ;;      Temps:          0       0       0       0       0
  5428 ;;      Totals:         6       0       0       0       0
  5429 ;;Total ram usage:        6 bytes
  5430 ;; Hardware stack levels used:    1
  5431 ;; This function calls:
  5432 ;;		Nothing
  5433 ;; This function is called by:
  5434 ;;		_Centralizar
  5435 ;;		_EscreveCaractere
  5436 ;; This function uses a non-reentrant model
  5437 ;;
  5438                           psect	text671
  5439                           	file	"C:\Program Files (x86)\HI-TECH Software\PICC\9.83\sources\wmul.c"
  5440                           	line	3
  5441                           	global	__size_of___wmul
  5442  002A                     	__size_of___wmul	equ	__end_of___wmul-___wmul
  5443                           	
  5444  0083                     ___wmul:	
  5445                           	opt	stack 5
  5446                           ; Regs used in ___wmul: [wreg+status,2+status,0]
  5447                           	line	4
  5448                           	
  5449  0083                     l5150:	
  5450  0083  01F4               	clrf	(___wmul@product)
  5451  0084  01F5               	clrf	(___wmul@product+1)
  5452  0085  2886               	goto	l5152
  5453                           	line	6
  5454                           	
  5455  0086                     l3126:	
  5456                           	line	7
  5457                           	
  5458  0086                     l5152:	
  5459  0086  1C70               	btfss	(___wmul@multiplier),(0)&7
  5460  0087  2889               	goto	u3201
  5461  0088  288A               	goto	u3200
  5462  0089                     u3201:
  5463  0089  2890               	goto	l3127
  5464  008A                     u3200:
  5465                           	line	8
  5466                           	
  5467  008A                     l5154:	
  5468  008A  0872               	movf	(___wmul@multiplicand),w
  5469  008B  07F4               	addwf	(___wmul@product),f
  5470  008C  1803               	skipnc
  5471  008D  0AF5               	incf	(___wmul@product+1),f
  5472  008E  0873               	movf	(___wmul@multiplicand+1),w
  5473  008F  07F5               	addwf	(___wmul@product+1),f
  5474                           	
  5475  0090                     l3127:	
  5476                           	line	9
  5477  0090  3001               	movlw	01h
  5478                           	
  5479  0091                     u3215:
  5480  0091  1003               	clrc
  5481  0092  0DF2               	rlf	(___wmul@multiplicand),f
  5482  0093  0DF3               	rlf	(___wmul@multiplicand+1),f
  5483  0094  3EFF               	addlw	-1
  5484  0095  1D03               	skipz
  5485  0096  2891               	goto	u3215
  5486                           	line	10
  5487                           	
  5488  0097                     l5156:	
  5489  0097  3001               	movlw	01h
  5490                           	
  5491  0098                     u3225:
  5492  0098  1003               	clrc
  5493  0099  0CF1               	rrf	(___wmul@multiplier+1),f
  5494  009A  0CF0               	rrf	(___wmul@multiplier),f
  5495  009B  3EFF               	addlw	-1
  5496  009C  1D03               	skipz
  5497  009D  2898               	goto	u3225
  5498                           	line	11
  5499  009E  0871               	movf	((___wmul@multiplier+1)),w
  5500  009F  0470               	iorwf	((___wmul@multiplier)),w
  5501  00A0  1D03               	skipz
  5502  00A1  28A3               	goto	u3231
  5503  00A2  28A4               	goto	u3230
  5504  00A3                     u3231:
  5505  00A3  2886               	goto	l5152
  5506  00A4                     u3230:
  5507  00A4  28A5               	goto	l5158
  5508                           	
  5509  00A5                     l3128:	
  5510                           	line	12
  5511                           	
  5512  00A5                     l5158:	
  5513  00A5  0875               	movf	(___wmul@product+1),w
  5514  00A6  01F1               	clrf	(?___wmul+1)
  5515  00A7  07F1               	addwf	(?___wmul+1)
  5516  00A8  0874               	movf	(___wmul@product),w
  5517  00A9  01F0               	clrf	(?___wmul)
  5518  00AA  07F0               	addwf	(?___wmul)
  5519                           
  5520  00AB  28AC               	goto	l3129
  5521                           	
  5522  00AC                     l5160:	
  5523                           	line	13
  5524                           	
  5525  00AC                     l3129:	
  5526  00AC  0008               	return
  5527                           	opt stack 0
  5528                           GLOBAL	__end_of___wmul
  5529  00AD                     	__end_of___wmul:
  5530 ;; =============== function ___wmul ends ============
  5531                           
  5532                           	signat	___wmul,8314
  5533                           	global	___bmul
  5534                           psect	text672,local,class=CODE,delta=2
  5535                           global __ptext672
  5536  0F43                     __ptext672:
  5537                           
  5538 ;; *************** function ___bmul *****************
  5539 ;; Defined at:
  5540 ;;		line 3 in file "C:\Program Files (x86)\HI-TECH Software\PICC\9.83\sources\bmul.c"
  5541 ;; Parameters:    Size  Location     Type
  5542 ;;  multiplier      1    wreg     unsigned char 
  5543 ;;  multiplicand    1    0[COMMON] unsigned char 
  5544 ;; Auto vars:     Size  Location     Type
  5545 ;;  multiplier      1    3[COMMON] unsigned char 
  5546 ;;  product         1    2[COMMON] unsigned char 
  5547 ;; Return value:  Size  Location     Type
  5548 ;;                  1    wreg      unsigned char 
  5549 ;; Registers used:
  5550 ;;		wreg, status,2, status,0
  5551 ;; Tracked objects:
  5552 ;;		On entry : 0/0
  5553 ;;		On exit  : 0/0
  5554 ;;		Unchanged: 0/0
  5555 ;; Data sizes:     COMMON   BANK0   BANK1   BANK3   BANK2
  5556 ;;      Params:         1       0       0       0       0
  5557 ;;      Locals:         2       0       0       0       0
  5558 ;;      Temps:          1       0       0       0       0
  5559 ;;      Totals:         4       0       0       0       0
  5560 ;;Total ram usage:        4 bytes
  5561 ;; Hardware stack levels used:    1
  5562 ;; This function calls:
  5563 ;;		Nothing
  5564 ;; This function is called by:
  5565 ;;		_JustificarDireita
  5566 ;; This function uses a non-reentrant model
  5567 ;;
  5568                           psect	text672
  5569                           	file	"C:\Program Files (x86)\HI-TECH Software\PICC\9.83\sources\bmul.c"
  5570                           	line	3
  5571                           	global	__size_of___bmul
  5572  0018                     	__size_of___bmul	equ	__end_of___bmul-___bmul
  5573                           	
  5574  0F43                     ___bmul:	
  5575                           	opt	stack 6
  5576                           ; Regs used in ___bmul: [wreg+status,2+status,0]
  5577                           ;___bmul@multiplier stored from wreg
  5578  0F43  00F3               	movwf	(___bmul@multiplier)
  5579                           	line	4
  5580                           	
  5581  0F44                     l5136:	
  5582  0F44  01F2               	clrf	(___bmul@product)
  5583                           	line	6
  5584                           	
  5585  0F45                     l3120:	
  5586                           	line	7
  5587  0F45  1C73               	btfss	(___bmul@multiplier),(0)&7
  5588  0F46  2F48               	goto	u3181
  5589  0F47  2F49               	goto	u3180
  5590  0F48                     u3181:
  5591  0F48  2F4E               	goto	l5140
  5592  0F49                     u3180:
  5593                           	line	8
  5594                           	
  5595  0F49                     l5138:	
  5596  0F49  0870               	movf	(___bmul@multiplicand),w
  5597  0F4A  00F1               	movwf	(??___bmul+0)+0
  5598  0F4B  0871               	movf	(??___bmul+0)+0,w
  5599  0F4C  07F2               	addwf	(___bmul@product),f
  5600  0F4D  2F4E               	goto	l5140
  5601                           	
  5602  0F4E                     l3121:	
  5603                           	line	9
  5604                           	
  5605  0F4E                     l5140:	
  5606  0F4E  1003               	clrc
  5607  0F4F  0DF0               	rlf	(___bmul@multiplicand),f
  5608                           
  5609                           	line	10
  5610                           	
  5611  0F50                     l5142:	
  5612  0F50  1003               	clrc
  5613  0F51  0CF3               	rrf	(___bmul@multiplier),f
  5614                           
  5615                           	line	11
  5616                           	
  5617  0F52                     l5144:	
  5618  0F52  08F3               	movf	(___bmul@multiplier),f
  5619  0F53  1D03               	skipz
  5620  0F54  2F56               	goto	u3191
  5621  0F55  2F57               	goto	u3190
  5622  0F56                     u3191:
  5623  0F56  2F45               	goto	l3120
  5624  0F57                     u3190:
  5625  0F57  2F58               	goto	l5146
  5626                           	
  5627  0F58                     l3122:	
  5628                           	line	12
  5629                           	
  5630  0F58                     l5146:	
  5631  0F58  0872               	movf	(___bmul@product),w
  5632  0F59  2F5A               	goto	l3123
  5633                           	
  5634  0F5A                     l5148:	
  5635                           	line	13
  5636                           	
  5637  0F5A                     l3123:	
  5638  0F5A  0008               	return
  5639                           	opt stack 0
  5640                           GLOBAL	__end_of___bmul
  5641  0F5B                     	__end_of___bmul:
  5642 ;; =============== function ___bmul ends ============
  5643                           
  5644                           	signat	___bmul,8313
  5645                           	global	_TamanhoFrase
  5646                           psect	text673,local,class=CODE,delta=2
  5647                           global __ptext673
  5648  0F79                     __ptext673:
  5649                           
  5650 ;; *************** function _TamanhoFrase *****************
  5651 ;; Defined at:
  5652 ;;		line 34 in file "C:\OD\OneDrive\Pessoal\Projetos para o GitHub\LCD Gráfico\recursos_texto.c"
  5653 ;; Parameters:    Size  Location     Type
  5654 ;;  frase           2    0[COMMON] PTR const unsigned char 
  5655 ;;		 -> STR_7(11), STR_4(18), STR_2(19), 
  5656 ;; Auto vars:     Size  Location     Type
  5657 ;;  tamanho         1    3[COMMON] unsigned char 
  5658 ;; Return value:  Size  Location     Type
  5659 ;;                  1    wreg      unsigned char 
  5660 ;; Registers used:
  5661 ;;		wreg, fsr0l, fsr0h, status,2, status,0, btemp+1, pclath
  5662 ;; Tracked objects:
  5663 ;;		On entry : 0/0
  5664 ;;		On exit  : 0/0
  5665 ;;		Unchanged: 0/0
  5666 ;; Data sizes:     COMMON   BANK0   BANK1   BANK3   BANK2
  5667 ;;      Params:         2       0       0       0       0
  5668 ;;      Locals:         1       0       0       0       0
  5669 ;;      Temps:          1       0       0       0       0
  5670 ;;      Totals:         4       0       0       0       0
  5671 ;;Total ram usage:        4 bytes
  5672 ;; Hardware stack levels used:    2
  5673 ;; This function calls:
  5674 ;;		Nothing
  5675 ;; This function is called by:
  5676 ;;		_main
  5677 ;; This function uses a non-reentrant model
  5678 ;;
  5679                           psect	text673
  5680                           	file	"C:\OD\OneDrive\Pessoal\Projetos para o GitHub\LCD Gráfico\recursos_texto.c"
  5681                           	line	34
  5682                           	global	__size_of_TamanhoFrase
  5683  0021                     	__size_of_TamanhoFrase	equ	__end_of_TamanhoFrase-_TamanhoFrase
  5684                           	
  5685  0F79                     _TamanhoFrase:	
  5686                           	opt	stack 6
  5687                           ; Regs used in _TamanhoFrase: [wreg-fsr0h+status,2+status,0+btemp+1+pclath]
  5688                           	line	35
  5689                           	
  5690  0F79                     l5076:	
  5691                           ;recursos_texto.c: 35: unsigned char tamanho = 0;
  5692  0F79  01F3               	clrf	(TamanhoFrase@tamanho)
  5693                           	line	36
  5694                           ;recursos_texto.c: 36: while(*frase)
  5695  0F7A  2F86               	goto	l5082
  5696                           	
  5697  0F7B                     l143:	
  5698                           	line	38
  5699                           	
  5700  0F7B                     l5078:	
  5701                           ;recursos_texto.c: 37: {
  5702                           ;recursos_texto.c: 38: tamanho++;
  5703  0F7B  3001               	movlw	(01h)
  5704  0F7C  00F2               	movwf	(??_TamanhoFrase+0)+0
  5705  0F7D  0872               	movf	(??_TamanhoFrase+0)+0,w
  5706  0F7E  07F3               	addwf	(TamanhoFrase@tamanho),f
  5707                           	line	39
  5708                           	
  5709  0F7F                     l5080:	
  5710                           ;recursos_texto.c: 39: frase++;
  5711  0F7F  3001               	movlw	low(01h)
  5712  0F80  07F0               	addwf	(TamanhoFrase@frase),f
  5713  0F81  1803               	skipnc
  5714  0F82  0AF1               	incf	(TamanhoFrase@frase+1),f
  5715  0F83  3000               	movlw	high(01h)
  5716  0F84  07F1               	addwf	(TamanhoFrase@frase+1),f
  5717  0F85  2F86               	goto	l5082
  5718                           	line	40
  5719                           	
  5720  0F86                     l142:	
  5721                           	line	36
  5722                           	
  5723  0F86                     l5082:	
  5724  0F86  0871               	movf	(TamanhoFrase@frase+1),w
  5725  0F87  1283               	bcf	status, 5	;RP0=0, select bank0
  5726  0F88  1303               	bcf	status, 6	;RP1=0, select bank0
  5727  0F89  00FF               	movwf	btemp+1
  5728  0F8A  0870               	movf	(TamanhoFrase@frase),w
  5729  0F8B  0084               	movwf	fsr0
  5730  0F8C  160A  158A  2500   	fcall	stringtab
              120A  158A         
  5731  0F91  3800               	iorlw	0
  5732  0F92  1D03               	skipz
  5733  0F93  2F95               	goto	u3071
  5734  0F94  2F96               	goto	u3070
  5735  0F95                     u3071:
  5736  0F95  2F7B               	goto	l5078
  5737  0F96                     u3070:
  5738  0F96  2F97               	goto	l5084
  5739                           	
  5740  0F97                     l144:	
  5741                           	line	41
  5742                           	
  5743  0F97                     l5084:	
  5744                           ;recursos_texto.c: 40: }
  5745                           ;recursos_texto.c: 41: return tamanho;
  5746  0F97  0873               	movf	(TamanhoFrase@tamanho),w
  5747  0F98  2F99               	goto	l145
  5748                           	
  5749  0F99                     l5086:	
  5750                           	line	42
  5751                           	
  5752  0F99                     l145:	
  5753  0F99  0008               	return
  5754                           	opt stack 0
  5755                           GLOBAL	__end_of_TamanhoFrase
  5756  0F9A                     	__end_of_TamanhoFrase:
  5757 ;; =============== function _TamanhoFrase ends ============
  5758                           
  5759                           	signat	_TamanhoFrase,4217
  5760                           	global	_CS2
  5761                           psect	text674,local,class=CODE,delta=2
  5762                           global __ptext674
  5763  0248                     __ptext674:
  5764                           
  5765 ;; *************** function _CS2 *****************
  5766 ;; Defined at:
  5767 ;;		line 328 in file "C:\OD\OneDrive\Pessoal\Projetos para o GitHub\LCD Gráfico\lcd_grafico.c"
  5768 ;; Parameters:    Size  Location     Type
  5769 ;;  cs2             1    wreg     unsigned char 
  5770 ;; Auto vars:     Size  Location     Type
  5771 ;;  cs2             1    2[COMMON] unsigned char 
  5772 ;; Return value:  Size  Location     Type
  5773 ;;		None               void
  5774 ;; Registers used:
  5775 ;;		wreg, fsr0l, fsr0h, status,2, status,0
  5776 ;; Tracked objects:
  5777 ;;		On entry : 0/0
  5778 ;;		On exit  : 0/0
  5779 ;;		Unchanged: 0/0
  5780 ;; Data sizes:     COMMON   BANK0   BANK1   BANK3   BANK2
  5781 ;;      Params:         0       0       0       0       0
  5782 ;;      Locals:         1       0       0       0       0
  5783 ;;      Temps:          2       0       0       0       0
  5784 ;;      Totals:         3       0       0       0       0
  5785 ;;Total ram usage:        3 bytes
  5786 ;; Hardware stack levels used:    1
  5787 ;; This function calls:
  5788 ;;		Nothing
  5789 ;; This function is called by:
  5790 ;;		_SelecionarArea
  5791 ;; This function uses a non-reentrant model
  5792 ;;
  5793                           psect	text674
  5794                           	file	"C:\OD\OneDrive\Pessoal\Projetos para o GitHub\LCD Gráfico\lcd_grafico.c"
  5795                           	line	328
  5796                           	global	__size_of_CS2
  5797  003C                     	__size_of_CS2	equ	__end_of_CS2-_CS2
  5798                           	
  5799  0248                     _CS2:	
  5800                           	opt	stack 4
  5801                           ; Regs used in _CS2: [wreg-fsr0h+status,2+status,0]
  5802                           ;CS2@cs2 stored from wreg
  5803  0248  00F2               	movwf	(CS2@cs2)
  5804                           	line	329
  5805                           	
  5806  0249                     l5068:	
  5807                           ;lcd_grafico.c: 329: cs2 = !cs2;
  5808  0249  08F2               	movf	(CS2@cs2)
  5809  024A  3000               	movlw	0
  5810  024B  1903               	skipnz
  5811  024C  3001               	movlw	1
  5812  024D  00F0               	movwf	(??_CS2+0)+0
  5813  024E  0870               	movf	(??_CS2+0)+0,w
  5814  024F  00F2               	movwf	(CS2@cs2)
  5815                           	line	330
  5816                           ;lcd_grafico.c: 330: if(cs2)
  5817  0250  0872               	movf	(CS2@cs2),w
  5818  0251  1D03               	skipz
  5819  0252  2A54               	goto	u3040
  5820  0253  2A67               	goto	l5072
  5821  0254                     u3040:
  5822                           	line	331
  5823                           	
  5824  0254                     l5070:	
  5825                           ;lcd_grafico.c: 331: *pinos_display.pinoCS2.latch_pino |= (1 << pinos_display.pinoCS2.bi
                                 t_pino);
  5826  0254  3001               	movlw	(01h)
  5827  0255  00F0               	movwf	(??_CS2+0)+0
  5828  0256  1683               	bsf	status, 5	;RP0=1, select bank1
  5829  0257  1303               	bcf	status, 6	;RP1=0, select bank1
  5830  0258  0A2E               	incf	0+(_pinos_display)^080h+0Eh,w
  5831  0259  2A5C               	goto	u3054
  5832  025A                     u3055:
  5833  025A  1003               	clrc
  5834  025B  0DF0               	rlf	(??_CS2+0)+0,f
  5835  025C                     u3054:
  5836  025C  3EFF               	addlw	-1
  5837  025D  1D03               	skipz
  5838  025E  2A5A               	goto	u3055
  5839  025F  0870               	movf	0+(??_CS2+0)+0,w
  5840  0260  00F1               	movwf	(??_CS2+1)+0
  5841  0261  082D               	movf	(0+_pinos_display+0Dh)^080h,w
  5842  0262  0084               	movwf	fsr0
  5843  0263  0871               	movf	(??_CS2+1)+0,w
  5844  0264  1383               	bcf	status, 7	;select IRP bank0
  5845  0265  0480               	iorwf	indf,f
  5846  0266  2A7B               	goto	l5074
  5847                           	line	332
  5848                           	
  5849  0267                     l118:	
  5850                           	line	333
  5851                           	
  5852  0267                     l5072:	
  5853                           ;lcd_grafico.c: 332: else
  5854                           ;lcd_grafico.c: 333: *pinos_display.pinoCS2.latch_pino &= (~(1 << pinos_display.pinoCS2.
                                 bit_pino));
  5855  0267  3001               	movlw	(01h)
  5856  0268  00F0               	movwf	(??_CS2+0)+0
  5857  0269  1683               	bsf	status, 5	;RP0=1, select bank1
  5858  026A  1303               	bcf	status, 6	;RP1=0, select bank1
  5859  026B  0A2E               	incf	0+(_pinos_display)^080h+0Eh,w
  5860  026C  2A6F               	goto	u3064
  5861  026D                     u3065:
  5862  026D  1003               	clrc
  5863  026E  0DF0               	rlf	(??_CS2+0)+0,f
  5864  026F                     u3064:
  5865  026F  3EFF               	addlw	-1
  5866  0270  1D03               	skipz
  5867  0271  2A6D               	goto	u3065
  5868  0272  0870               	movf	0+(??_CS2+0)+0,w
  5869  0273  3AFF               	xorlw	0ffh
  5870  0274  00F1               	movwf	(??_CS2+1)+0
  5871  0275  082D               	movf	(0+_pinos_display+0Dh)^080h,w
  5872  0276  0084               	movwf	fsr0
  5873  0277  0871               	movf	(??_CS2+1)+0,w
  5874  0278  1383               	bcf	status, 7	;select IRP bank0
  5875  0279  0580               	andwf	indf,f
  5876  027A  2A7B               	goto	l5074
  5877                           	
  5878  027B                     l119:	
  5879                           	line	334
  5880                           	
  5881  027B                     l5074:	
  5882                           ;lcd_grafico.c: 334: *pinos_display.pinoCS2.porta_pino = *pinos_display.pinoCS2.latch_pi
                                 no;
  5883  027B  082D               	movf	(0+_pinos_display+0Dh)^080h,w
  5884  027C  0084               	movwf	fsr0
  5885  027D  0800               	movf	indf,w
  5886  027E  00F0               	movwf	(??_CS2+0)+0
  5887  027F  082C               	movf	(0+_pinos_display+0Ch)^080h,w
  5888  0280  0084               	movwf	fsr0
  5889  0281  0870               	movf	(??_CS2+0)+0,w
  5890  0282  0080               	movwf	indf
  5891                           	line	335
  5892                           	
  5893  0283                     l120:	
  5894  0283  0008               	return
  5895                           	opt stack 0
  5896                           GLOBAL	__end_of_CS2
  5897  0284                     	__end_of_CS2:
  5898 ;; =============== function _CS2 ends ============
  5899                           
  5900                           	signat	_CS2,4216
  5901                           	global	_CS1
  5902                           psect	text675,local,class=CODE,delta=2
  5903                           global __ptext675
  5904  020C                     __ptext675:
  5905                           
  5906 ;; *************** function _CS1 *****************
  5907 ;; Defined at:
  5908 ;;		line 308 in file "C:\OD\OneDrive\Pessoal\Projetos para o GitHub\LCD Gráfico\lcd_grafico.c"
  5909 ;; Parameters:    Size  Location     Type
  5910 ;;  cs1             1    wreg     unsigned char 
  5911 ;; Auto vars:     Size  Location     Type
  5912 ;;  cs1             1    2[COMMON] unsigned char 
  5913 ;; Return value:  Size  Location     Type
  5914 ;;		None               void
  5915 ;; Registers used:
  5916 ;;		wreg, fsr0l, fsr0h, status,2, status,0
  5917 ;; Tracked objects:
  5918 ;;		On entry : 0/0
  5919 ;;		On exit  : 0/0
  5920 ;;		Unchanged: 0/0
  5921 ;; Data sizes:     COMMON   BANK0   BANK1   BANK3   BANK2
  5922 ;;      Params:         0       0       0       0       0
  5923 ;;      Locals:         1       0       0       0       0
  5924 ;;      Temps:          2       0       0       0       0
  5925 ;;      Totals:         3       0       0       0       0
  5926 ;;Total ram usage:        3 bytes
  5927 ;; Hardware stack levels used:    1
  5928 ;; This function calls:
  5929 ;;		Nothing
  5930 ;; This function is called by:
  5931 ;;		_SelecionarArea
  5932 ;; This function uses a non-reentrant model
  5933 ;;
  5934                           psect	text675
  5935                           	file	"C:\OD\OneDrive\Pessoal\Projetos para o GitHub\LCD Gráfico\lcd_grafico.c"
  5936                           	line	308
  5937                           	global	__size_of_CS1
  5938  003C                     	__size_of_CS1	equ	__end_of_CS1-_CS1
  5939                           	
  5940  020C                     _CS1:	
  5941                           	opt	stack 4
  5942                           ; Regs used in _CS1: [wreg-fsr0h+status,2+status,0]
  5943                           ;CS1@cs1 stored from wreg
  5944  020C  00F2               	movwf	(CS1@cs1)
  5945                           	line	309
  5946                           	
  5947  020D                     l5060:	
  5948                           ;lcd_grafico.c: 309: cs1 = !cs1;
  5949  020D  08F2               	movf	(CS1@cs1)
  5950  020E  3000               	movlw	0
  5951  020F  1903               	skipnz
  5952  0210  3001               	movlw	1
  5953  0211  00F0               	movwf	(??_CS1+0)+0
  5954  0212  0870               	movf	(??_CS1+0)+0,w
  5955  0213  00F2               	movwf	(CS1@cs1)
  5956                           	line	310
  5957                           ;lcd_grafico.c: 310: if(cs1)
  5958  0214  0872               	movf	(CS1@cs1),w
  5959  0215  1D03               	skipz
  5960  0216  2A18               	goto	u3010
  5961  0217  2A2B               	goto	l5064
  5962  0218                     u3010:
  5963                           	line	311
  5964                           	
  5965  0218                     l5062:	
  5966                           ;lcd_grafico.c: 311: *pinos_display.pinoCS1.latch_pino |= (1 << pinos_display.pinoCS1.bi
                                 t_pino);
  5967  0218  3001               	movlw	(01h)
  5968  0219  00F0               	movwf	(??_CS1+0)+0
  5969  021A  1683               	bsf	status, 5	;RP0=1, select bank1
  5970  021B  1303               	bcf	status, 6	;RP1=0, select bank1
  5971  021C  0A2B               	incf	0+(_pinos_display)^080h+0Bh,w
  5972  021D  2A20               	goto	u3024
  5973  021E                     u3025:
  5974  021E  1003               	clrc
  5975  021F  0DF0               	rlf	(??_CS1+0)+0,f
  5976  0220                     u3024:
  5977  0220  3EFF               	addlw	-1
  5978  0221  1D03               	skipz
  5979  0222  2A1E               	goto	u3025
  5980  0223  0870               	movf	0+(??_CS1+0)+0,w
  5981  0224  00F1               	movwf	(??_CS1+1)+0
  5982  0225  082A               	movf	(0+_pinos_display+0Ah)^080h,w
  5983  0226  0084               	movwf	fsr0
  5984  0227  0871               	movf	(??_CS1+1)+0,w
  5985  0228  1383               	bcf	status, 7	;select IRP bank0
  5986  0229  0480               	iorwf	indf,f
  5987  022A  2A3F               	goto	l5066
  5988                           	line	312
  5989                           	
  5990  022B                     l113:	
  5991                           	line	313
  5992                           	
  5993  022B                     l5064:	
  5994                           ;lcd_grafico.c: 312: else
  5995                           ;lcd_grafico.c: 313: *pinos_display.pinoCS1.latch_pino &= (~(1 << pinos_display.pinoCS1.
                                 bit_pino));
  5996  022B  3001               	movlw	(01h)
  5997  022C  00F0               	movwf	(??_CS1+0)+0
  5998  022D  1683               	bsf	status, 5	;RP0=1, select bank1
  5999  022E  1303               	bcf	status, 6	;RP1=0, select bank1
  6000  022F  0A2B               	incf	0+(_pinos_display)^080h+0Bh,w
  6001  0230  2A33               	goto	u3034
  6002  0231                     u3035:
  6003  0231  1003               	clrc
  6004  0232  0DF0               	rlf	(??_CS1+0)+0,f
  6005  0233                     u3034:
  6006  0233  3EFF               	addlw	-1
  6007  0234  1D03               	skipz
  6008  0235  2A31               	goto	u3035
  6009  0236  0870               	movf	0+(??_CS1+0)+0,w
  6010  0237  3AFF               	xorlw	0ffh
  6011  0238  00F1               	movwf	(??_CS1+1)+0
  6012  0239  082A               	movf	(0+_pinos_display+0Ah)^080h,w
  6013  023A  0084               	movwf	fsr0
  6014  023B  0871               	movf	(??_CS1+1)+0,w
  6015  023C  1383               	bcf	status, 7	;select IRP bank0
  6016  023D  0580               	andwf	indf,f
  6017  023E  2A3F               	goto	l5066
  6018                           	
  6019  023F                     l114:	
  6020                           	line	314
  6021                           	
  6022  023F                     l5066:	
  6023                           ;lcd_grafico.c: 314: *pinos_display.pinoCS1.porta_pino = *pinos_display.pinoCS1.latch_pi
                                 no;
  6024  023F  082A               	movf	(0+_pinos_display+0Ah)^080h,w
  6025  0240  0084               	movwf	fsr0
  6026  0241  0800               	movf	indf,w
  6027  0242  00F0               	movwf	(??_CS1+0)+0
  6028  0243  0829               	movf	(0+_pinos_display+09h)^080h,w
  6029  0244  0084               	movwf	fsr0
  6030  0245  0870               	movf	(??_CS1+0)+0,w
  6031  0246  0080               	movwf	indf
  6032                           	line	315
  6033                           	
  6034  0247                     l115:	
  6035  0247  0008               	return
  6036                           	opt stack 0
  6037                           GLOBAL	__end_of_CS1
  6038  0248                     	__end_of_CS1:
  6039 ;; =============== function _CS1 ends ============
  6040                           
  6041                           	signat	_CS1,4216
  6042                           	global	_RS
  6043                           psect	text676,local,class=CODE,delta=2
  6044                           global __ptext676
  6045  01D7                     __ptext676:
  6046                           
  6047 ;; *************** function _RS *****************
  6048 ;; Defined at:
  6049 ;;		line 289 in file "C:\OD\OneDrive\Pessoal\Projetos para o GitHub\LCD Gráfico\lcd_grafico.c"
  6050 ;; Parameters:    Size  Location     Type
  6051 ;;  rs              1    wreg     unsigned char 
  6052 ;; Auto vars:     Size  Location     Type
  6053 ;;  rs              1    2[COMMON] unsigned char 
  6054 ;; Return value:  Size  Location     Type
  6055 ;;		None               void
  6056 ;; Registers used:
  6057 ;;		wreg, fsr0l, fsr0h, status,2, status,0
  6058 ;; Tracked objects:
  6059 ;;		On entry : 0/0
  6060 ;;		On exit  : 0/0
  6061 ;;		Unchanged: 0/0
  6062 ;; Data sizes:     COMMON   BANK0   BANK1   BANK3   BANK2
  6063 ;;      Params:         0       0       0       0       0
  6064 ;;      Locals:         1       0       0       0       0
  6065 ;;      Temps:          2       0       0       0       0
  6066 ;;      Totals:         3       0       0       0       0
  6067 ;;Total ram usage:        3 bytes
  6068 ;; Hardware stack levels used:    1
  6069 ;; This function calls:
  6070 ;;		Nothing
  6071 ;; This function is called by:
  6072 ;;		_LigarDisplay
  6073 ;;		_EnviarDado
  6074 ;;		_LerDado
  6075 ;;		_EnderecoX
  6076 ;;		_EnderecoY
  6077 ;;		_DesligarDisplay
  6078 ;;		_ReceberStatus
  6079 ;; This function uses a non-reentrant model
  6080 ;;
  6081                           psect	text676
  6082                           	file	"C:\OD\OneDrive\Pessoal\Projetos para o GitHub\LCD Gráfico\lcd_grafico.c"
  6083                           	line	289
  6084                           	global	__size_of_RS
  6085  0035                     	__size_of_RS	equ	__end_of_RS-_RS
  6086                           	
  6087  01D7                     _RS:	
  6088                           	opt	stack 5
  6089                           ; Regs used in _RS: [wreg-fsr0h+status,2+status,0]
  6090                           ;RS@rs stored from wreg
  6091  01D7  00F2               	movwf	(RS@rs)
  6092                           	line	290
  6093                           	
  6094  01D8                     l5048:	
  6095                           ;lcd_grafico.c: 290: if(rs)
  6096  01D8  0872               	movf	(RS@rs),w
  6097  01D9  1D03               	skipz
  6098  01DA  29DC               	goto	u2980
  6099  01DB  29EF               	goto	l5052
  6100  01DC                     u2980:
  6101                           	line	291
  6102                           	
  6103  01DC                     l5050:	
  6104                           ;lcd_grafico.c: 291: *pinos_display.pinoRS.latch_pino |= (1 << pinos_display.pinoRS.bit_
                                 pino);
  6105  01DC  3001               	movlw	(01h)
  6106  01DD  00F0               	movwf	(??_RS+0)+0
  6107  01DE  1683               	bsf	status, 5	;RP0=1, select bank1
  6108  01DF  1303               	bcf	status, 6	;RP1=0, select bank1
  6109  01E0  0A28               	incf	0+(_pinos_display)^080h+08h,w
  6110  01E1  29E4               	goto	u2994
  6111  01E2                     u2995:
  6112  01E2  1003               	clrc
  6113  01E3  0DF0               	rlf	(??_RS+0)+0,f
  6114  01E4                     u2994:
  6115  01E4  3EFF               	addlw	-1
  6116  01E5  1D03               	skipz
  6117  01E6  29E2               	goto	u2995
  6118  01E7  0870               	movf	0+(??_RS+0)+0,w
  6119  01E8  00F1               	movwf	(??_RS+1)+0
  6120  01E9  0827               	movf	(0+_pinos_display+07h)^080h,w
  6121  01EA  0084               	movwf	fsr0
  6122  01EB  0871               	movf	(??_RS+1)+0,w
  6123  01EC  1383               	bcf	status, 7	;select IRP bank0
  6124  01ED  0480               	iorwf	indf,f
  6125  01EE  2A03               	goto	l5054
  6126                           	line	292
  6127                           	
  6128  01EF                     l108:	
  6129                           	line	293
  6130                           	
  6131  01EF                     l5052:	
  6132                           ;lcd_grafico.c: 292: else
  6133                           ;lcd_grafico.c: 293: *pinos_display.pinoRS.latch_pino &= (~(1 << pinos_display.pinoRS.bi
                                 t_pino));
  6134  01EF  3001               	movlw	(01h)
  6135  01F0  00F0               	movwf	(??_RS+0)+0
  6136  01F1  1683               	bsf	status, 5	;RP0=1, select bank1
  6137  01F2  1303               	bcf	status, 6	;RP1=0, select bank1
  6138  01F3  0A28               	incf	0+(_pinos_display)^080h+08h,w
  6139  01F4  29F7               	goto	u3004
  6140  01F5                     u3005:
  6141  01F5  1003               	clrc
  6142  01F6  0DF0               	rlf	(??_RS+0)+0,f
  6143  01F7                     u3004:
  6144  01F7  3EFF               	addlw	-1
  6145  01F8  1D03               	skipz
  6146  01F9  29F5               	goto	u3005
  6147  01FA  0870               	movf	0+(??_RS+0)+0,w
  6148  01FB  3AFF               	xorlw	0ffh
  6149  01FC  00F1               	movwf	(??_RS+1)+0
  6150  01FD  0827               	movf	(0+_pinos_display+07h)^080h,w
  6151  01FE  0084               	movwf	fsr0
  6152  01FF  0871               	movf	(??_RS+1)+0,w
  6153  0200  1383               	bcf	status, 7	;select IRP bank0
  6154  0201  0580               	andwf	indf,f
  6155  0202  2A03               	goto	l5054
  6156                           	
  6157  0203                     l109:	
  6158                           	line	294
  6159                           	
  6160  0203                     l5054:	
  6161                           ;lcd_grafico.c: 294: *pinos_display.pinoRS.porta_pino = *pinos_display.pinoRS.latch_pino
                                 ;
  6162  0203  0827               	movf	(0+_pinos_display+07h)^080h,w
  6163  0204  0084               	movwf	fsr0
  6164  0205  0800               	movf	indf,w
  6165  0206  00F0               	movwf	(??_RS+0)+0
  6166  0207  0826               	movf	(0+_pinos_display+06h)^080h,w
  6167  0208  0084               	movwf	fsr0
  6168  0209  0870               	movf	(??_RS+0)+0,w
  6169  020A  0080               	movwf	indf
  6170                           	line	295
  6171                           	
  6172  020B                     l110:	
  6173  020B  0008               	return
  6174                           	opt stack 0
  6175                           GLOBAL	__end_of_RS
  6176  020C                     	__end_of_RS:
  6177 ;; =============== function _RS ends ============
  6178                           
  6179                           	signat	_RS,4216
  6180                           	global	_E
  6181                           psect	text677,local,class=CODE,delta=2
  6182                           global __ptext677
  6183  01A2                     __ptext677:
  6184                           
  6185 ;; *************** function _E *****************
  6186 ;; Defined at:
  6187 ;;		line 253 in file "C:\OD\OneDrive\Pessoal\Projetos para o GitHub\LCD Gráfico\lcd_grafico.c"
  6188 ;; Parameters:    Size  Location     Type
  6189 ;;  e               1    wreg     unsigned char 
  6190 ;; Auto vars:     Size  Location     Type
  6191 ;;  e               1    2[COMMON] unsigned char 
  6192 ;; Return value:  Size  Location     Type
  6193 ;;		None               void
  6194 ;; Registers used:
  6195 ;;		wreg, fsr0l, fsr0h, status,2, status,0
  6196 ;; Tracked objects:
  6197 ;;		On entry : 0/0
  6198 ;;		On exit  : 0/0
  6199 ;;		Unchanged: 0/0
  6200 ;; Data sizes:     COMMON   BANK0   BANK1   BANK3   BANK2
  6201 ;;      Params:         0       0       0       0       0
  6202 ;;      Locals:         1       0       0       0       0
  6203 ;;      Temps:          2       0       0       0       0
  6204 ;;      Totals:         3       0       0       0       0
  6205 ;;Total ram usage:        3 bytes
  6206 ;; Hardware stack levels used:    1
  6207 ;; This function calls:
  6208 ;;		Nothing
  6209 ;; This function is called by:
  6210 ;;		_Clock
  6211 ;;		_ClockComLeitura
  6212 ;; This function uses a non-reentrant model
  6213 ;;
  6214                           psect	text677
  6215                           	file	"C:\OD\OneDrive\Pessoal\Projetos para o GitHub\LCD Gráfico\lcd_grafico.c"
  6216                           	line	253
  6217                           	global	__size_of_E
  6218  0035                     	__size_of_E	equ	__end_of_E-_E
  6219                           	
  6220  01A2                     _E:	
  6221                           	opt	stack 4
  6222                           ; Regs used in _E: [wreg-fsr0h+status,2+status,0]
  6223                           ;E@e stored from wreg
  6224  01A2  00F2               	movwf	(E@e)
  6225                           	line	254
  6226                           	
  6227  01A3                     l5032:	
  6228                           ;lcd_grafico.c: 254: if(e)
  6229  01A3  0872               	movf	(E@e),w
  6230  01A4  1D03               	skipz
  6231  01A5  29A7               	goto	u2950
  6232  01A6  29BA               	goto	l5036
  6233  01A7                     u2950:
  6234                           	line	255
  6235                           	
  6236  01A7                     l5034:	
  6237                           ;lcd_grafico.c: 255: *pinos_display.pinoE.latch_pino |= (1 << pinos_display.pinoE.bit_pi
                                 no);
  6238  01A7  3001               	movlw	(01h)
  6239  01A8  00F0               	movwf	(??_E+0)+0
  6240  01A9  1683               	bsf	status, 5	;RP0=1, select bank1
  6241  01AA  1303               	bcf	status, 6	;RP1=0, select bank1
  6242  01AB  0A22               	incf	0+(_pinos_display)^080h+02h,w
  6243  01AC  29AF               	goto	u2964
  6244  01AD                     u2965:
  6245  01AD  1003               	clrc
  6246  01AE  0DF0               	rlf	(??_E+0)+0,f
  6247  01AF                     u2964:
  6248  01AF  3EFF               	addlw	-1
  6249  01B0  1D03               	skipz
  6250  01B1  29AD               	goto	u2965
  6251  01B2  0870               	movf	0+(??_E+0)+0,w
  6252  01B3  00F1               	movwf	(??_E+1)+0
  6253  01B4  0821               	movf	(0+_pinos_display+01h)^080h,w
  6254  01B5  0084               	movwf	fsr0
  6255  01B6  0871               	movf	(??_E+1)+0,w
  6256  01B7  1383               	bcf	status, 7	;select IRP bank0
  6257  01B8  0480               	iorwf	indf,f
  6258  01B9  29CE               	goto	l5038
  6259                           	line	256
  6260                           	
  6261  01BA                     l98:	
  6262                           	line	257
  6263                           	
  6264  01BA                     l5036:	
  6265                           ;lcd_grafico.c: 256: else
  6266                           ;lcd_grafico.c: 257: *pinos_display.pinoE.latch_pino &= (~(1 << pinos_display.pinoE.bit_
                                 pino));
  6267  01BA  3001               	movlw	(01h)
  6268  01BB  00F0               	movwf	(??_E+0)+0
  6269  01BC  1683               	bsf	status, 5	;RP0=1, select bank1
  6270  01BD  1303               	bcf	status, 6	;RP1=0, select bank1
  6271  01BE  0A22               	incf	0+(_pinos_display)^080h+02h,w
  6272  01BF  29C2               	goto	u2974
  6273  01C0                     u2975:
  6274  01C0  1003               	clrc
  6275  01C1  0DF0               	rlf	(??_E+0)+0,f
  6276  01C2                     u2974:
  6277  01C2  3EFF               	addlw	-1
  6278  01C3  1D03               	skipz
  6279  01C4  29C0               	goto	u2975
  6280  01C5  0870               	movf	0+(??_E+0)+0,w
  6281  01C6  3AFF               	xorlw	0ffh
  6282  01C7  00F1               	movwf	(??_E+1)+0
  6283  01C8  0821               	movf	(0+_pinos_display+01h)^080h,w
  6284  01C9  0084               	movwf	fsr0
  6285  01CA  0871               	movf	(??_E+1)+0,w
  6286  01CB  1383               	bcf	status, 7	;select IRP bank0
  6287  01CC  0580               	andwf	indf,f
  6288  01CD  29CE               	goto	l5038
  6289                           	
  6290  01CE                     l99:	
  6291                           	line	258
  6292                           	
  6293  01CE                     l5038:	
  6294                           ;lcd_grafico.c: 258: *pinos_display.pinoE.porta_pino = *pinos_display.pinoE.latch_pino;
  6295  01CE  0821               	movf	(0+_pinos_display+01h)^080h,w
  6296  01CF  0084               	movwf	fsr0
  6297  01D0  0800               	movf	indf,w
  6298  01D1  00F0               	movwf	(??_E+0)+0
  6299  01D2  0820               	movf	(_pinos_display)^080h,w
  6300  01D3  0084               	movwf	fsr0
  6301  01D4  0870               	movf	(??_E+0)+0,w
  6302  01D5  0080               	movwf	indf
  6303                           	line	259
  6304                           	
  6305  01D6                     l100:	
  6306  01D6  0008               	return
  6307                           	opt stack 0
  6308                           GLOBAL	__end_of_E
  6309  01D7                     	__end_of_E:
  6310 ;; =============== function _E ends ============
  6311                           
  6312                           	signat	_E,4216
  6313                           	global	_RW
  6314                           psect	text678,local,class=CODE,delta=2
  6315                           global __ptext678
  6316  016D                     __ptext678:
  6317                           
  6318 ;; *************** function _RW *****************
  6319 ;; Defined at:
  6320 ;;		line 271 in file "C:\OD\OneDrive\Pessoal\Projetos para o GitHub\LCD Gráfico\lcd_grafico.c"
  6321 ;; Parameters:    Size  Location     Type
  6322 ;;  rw              1    wreg     unsigned char 
  6323 ;; Auto vars:     Size  Location     Type
  6324 ;;  rw              1    2[COMMON] unsigned char 
  6325 ;; Return value:  Size  Location     Type
  6326 ;;		None               void
  6327 ;; Registers used:
  6328 ;;		wreg, fsr0l, fsr0h, status,2, status,0
  6329 ;; Tracked objects:
  6330 ;;		On entry : 0/0
  6331 ;;		On exit  : 0/0
  6332 ;;		Unchanged: 0/0
  6333 ;; Data sizes:     COMMON   BANK0   BANK1   BANK3   BANK2
  6334 ;;      Params:         0       0       0       0       0
  6335 ;;      Locals:         1       0       0       0       0
  6336 ;;      Temps:          2       0       0       0       0
  6337 ;;      Totals:         3       0       0       0       0
  6338 ;;Total ram usage:        3 bytes
  6339 ;; Hardware stack levels used:    1
  6340 ;; This function calls:
  6341 ;;		Nothing
  6342 ;; This function is called by:
  6343 ;;		_InicializarDisplay
  6344 ;;		_ClockComLeitura
  6345 ;; This function uses a non-reentrant model
  6346 ;;
  6347                           psect	text678
  6348                           	file	"C:\OD\OneDrive\Pessoal\Projetos para o GitHub\LCD Gráfico\lcd_grafico.c"
  6349                           	line	271
  6350                           	global	__size_of_RW
  6351  0035                     	__size_of_RW	equ	__end_of_RW-_RW
  6352                           	
  6353  016D                     _RW:	
  6354                           	opt	stack 4
  6355                           ; Regs used in _RW: [wreg-fsr0h+status,2+status,0]
  6356                           ;RW@rw stored from wreg
  6357  016D  00F2               	movwf	(RW@rw)
  6358                           	line	272
  6359                           	
  6360  016E                     l5024:	
  6361                           ;lcd_grafico.c: 272: if(rw)
  6362  016E  0872               	movf	(RW@rw),w
  6363  016F  1D03               	skipz
  6364  0170  2972               	goto	u2920
  6365  0171  2985               	goto	l5028
  6366  0172                     u2920:
  6367                           	line	273
  6368                           	
  6369  0172                     l5026:	
  6370                           ;lcd_grafico.c: 273: *pinos_display.pinoRW.latch_pino |= (1 << pinos_display.pinoRW.bit_
                                 pino);
  6371  0172  3001               	movlw	(01h)
  6372  0173  00F0               	movwf	(??_RW+0)+0
  6373  0174  1683               	bsf	status, 5	;RP0=1, select bank1
  6374  0175  1303               	bcf	status, 6	;RP1=0, select bank1
  6375  0176  0A25               	incf	0+(_pinos_display)^080h+05h,w
  6376  0177  297A               	goto	u2934
  6377  0178                     u2935:
  6378  0178  1003               	clrc
  6379  0179  0DF0               	rlf	(??_RW+0)+0,f
  6380  017A                     u2934:
  6381  017A  3EFF               	addlw	-1
  6382  017B  1D03               	skipz
  6383  017C  2978               	goto	u2935
  6384  017D  0870               	movf	0+(??_RW+0)+0,w
  6385  017E  00F1               	movwf	(??_RW+1)+0
  6386  017F  0824               	movf	(0+_pinos_display+04h)^080h,w
  6387  0180  0084               	movwf	fsr0
  6388  0181  0871               	movf	(??_RW+1)+0,w
  6389  0182  1383               	bcf	status, 7	;select IRP bank0
  6390  0183  0480               	iorwf	indf,f
  6391  0184  2999               	goto	l5030
  6392                           	line	274
  6393                           	
  6394  0185                     l103:	
  6395                           	line	275
  6396                           	
  6397  0185                     l5028:	
  6398                           ;lcd_grafico.c: 274: else
  6399                           ;lcd_grafico.c: 275: *pinos_display.pinoRW.latch_pino &= (~(1 << pinos_display.pinoRW.bi
                                 t_pino));
  6400  0185  3001               	movlw	(01h)
  6401  0186  00F0               	movwf	(??_RW+0)+0
  6402  0187  1683               	bsf	status, 5	;RP0=1, select bank1
  6403  0188  1303               	bcf	status, 6	;RP1=0, select bank1
  6404  0189  0A25               	incf	0+(_pinos_display)^080h+05h,w
  6405  018A  298D               	goto	u2944
  6406  018B                     u2945:
  6407  018B  1003               	clrc
  6408  018C  0DF0               	rlf	(??_RW+0)+0,f
  6409  018D                     u2944:
  6410  018D  3EFF               	addlw	-1
  6411  018E  1D03               	skipz
  6412  018F  298B               	goto	u2945
  6413  0190  0870               	movf	0+(??_RW+0)+0,w
  6414  0191  3AFF               	xorlw	0ffh
  6415  0192  00F1               	movwf	(??_RW+1)+0
  6416  0193  0824               	movf	(0+_pinos_display+04h)^080h,w
  6417  0194  0084               	movwf	fsr0
  6418  0195  0871               	movf	(??_RW+1)+0,w
  6419  0196  1383               	bcf	status, 7	;select IRP bank0
  6420  0197  0580               	andwf	indf,f
  6421  0198  2999               	goto	l5030
  6422                           	
  6423  0199                     l104:	
  6424                           	line	276
  6425                           	
  6426  0199                     l5030:	
  6427                           ;lcd_grafico.c: 276: *pinos_display.pinoRW.porta_pino = *pinos_display.pinoRW.latch_pino
                                 ;
  6428  0199  0824               	movf	(0+_pinos_display+04h)^080h,w
  6429  019A  0084               	movwf	fsr0
  6430  019B  0800               	movf	indf,w
  6431  019C  00F0               	movwf	(??_RW+0)+0
  6432  019D  0823               	movf	(0+_pinos_display+03h)^080h,w
  6433  019E  0084               	movwf	fsr0
  6434  019F  0870               	movf	(??_RW+0)+0,w
  6435  01A0  0080               	movwf	indf
  6436                           	line	277
  6437                           	
  6438  01A1                     l105:	
  6439  01A1  0008               	return
  6440                           	opt stack 0
  6441                           GLOBAL	__end_of_RW
  6442  01A2                     	__end_of_RW:
  6443 ;; =============== function _RW ends ============
  6444                           
  6445                           	signat	_RW,4216
  6446                           	global	_RST
  6447                           psect	text679,local,class=CODE,delta=2
  6448                           global __ptext679
  6449  0138                     __ptext679:
  6450                           
  6451 ;; *************** function _RST *****************
  6452 ;; Defined at:
  6453 ;;		line 347 in file "C:\OD\OneDrive\Pessoal\Projetos para o GitHub\LCD Gráfico\lcd_grafico.c"
  6454 ;; Parameters:    Size  Location     Type
  6455 ;;  rst             1    wreg     unsigned char 
  6456 ;; Auto vars:     Size  Location     Type
  6457 ;;  rst             1    2[COMMON] unsigned char 
  6458 ;; Return value:  Size  Location     Type
  6459 ;;		None               void
  6460 ;; Registers used:
  6461 ;;		wreg, fsr0l, fsr0h, status,2, status,0
  6462 ;; Tracked objects:
  6463 ;;		On entry : 0/0
  6464 ;;		On exit  : 0/0
  6465 ;;		Unchanged: 0/0
  6466 ;; Data sizes:     COMMON   BANK0   BANK1   BANK3   BANK2
  6467 ;;      Params:         0       0       0       0       0
  6468 ;;      Locals:         1       0       0       0       0
  6469 ;;      Temps:          2       0       0       0       0
  6470 ;;      Totals:         3       0       0       0       0
  6471 ;;Total ram usage:        3 bytes
  6472 ;; Hardware stack levels used:    1
  6473 ;; This function calls:
  6474 ;;		Nothing
  6475 ;; This function is called by:
  6476 ;;		_InicializarDisplay
  6477 ;; This function uses a non-reentrant model
  6478 ;;
  6479                           psect	text679
  6480                           	file	"C:\OD\OneDrive\Pessoal\Projetos para o GitHub\LCD Gráfico\lcd_grafico.c"
  6481                           	line	347
  6482                           	global	__size_of_RST
  6483  0035                     	__size_of_RST	equ	__end_of_RST-_RST
  6484                           	
  6485  0138                     _RST:	
  6486                           	opt	stack 6
  6487                           ; Regs used in _RST: [wreg-fsr0h+status,2+status,0]
  6488                           ;RST@rst stored from wreg
  6489  0138  00F2               	movwf	(RST@rst)
  6490                           	line	348
  6491                           	
  6492  0139                     l5016:	
  6493                           ;lcd_grafico.c: 348: if(rst)
  6494  0139  0872               	movf	(RST@rst),w
  6495  013A  1D03               	skipz
  6496  013B  293D               	goto	u2890
  6497  013C  2950               	goto	l5020
  6498  013D                     u2890:
  6499                           	line	349
  6500                           	
  6501  013D                     l5018:	
  6502                           ;lcd_grafico.c: 349: *pinos_display.pinoRST.latch_pino |= (1 << pinos_display.pinoRST.bi
                                 t_pino);
  6503  013D  3001               	movlw	(01h)
  6504  013E  00F0               	movwf	(??_RST+0)+0
  6505  013F  1683               	bsf	status, 5	;RP0=1, select bank1
  6506  0140  1303               	bcf	status, 6	;RP1=0, select bank1
  6507  0141  0A31               	incf	0+(_pinos_display)^080h+011h,w
  6508  0142  2945               	goto	u2904
  6509  0143                     u2905:
  6510  0143  1003               	clrc
  6511  0144  0DF0               	rlf	(??_RST+0)+0,f
  6512  0145                     u2904:
  6513  0145  3EFF               	addlw	-1
  6514  0146  1D03               	skipz
  6515  0147  2943               	goto	u2905
  6516  0148  0870               	movf	0+(??_RST+0)+0,w
  6517  0149  00F1               	movwf	(??_RST+1)+0
  6518  014A  0830               	movf	(0+_pinos_display+010h)^080h,w
  6519  014B  0084               	movwf	fsr0
  6520  014C  0871               	movf	(??_RST+1)+0,w
  6521  014D  1383               	bcf	status, 7	;select IRP bank0
  6522  014E  0480               	iorwf	indf,f
  6523  014F  2964               	goto	l5022
  6524                           	line	350
  6525                           	
  6526  0150                     l123:	
  6527                           	line	351
  6528                           	
  6529  0150                     l5020:	
  6530                           ;lcd_grafico.c: 350: else
  6531                           ;lcd_grafico.c: 351: *pinos_display.pinoRST.latch_pino &= (~(1 << pinos_display.pinoRST.
                                 bit_pino));
  6532  0150  3001               	movlw	(01h)
  6533  0151  00F0               	movwf	(??_RST+0)+0
  6534  0152  1683               	bsf	status, 5	;RP0=1, select bank1
  6535  0153  1303               	bcf	status, 6	;RP1=0, select bank1
  6536  0154  0A31               	incf	0+(_pinos_display)^080h+011h,w
  6537  0155  2958               	goto	u2914
  6538  0156                     u2915:
  6539  0156  1003               	clrc
  6540  0157  0DF0               	rlf	(??_RST+0)+0,f
  6541  0158                     u2914:
  6542  0158  3EFF               	addlw	-1
  6543  0159  1D03               	skipz
  6544  015A  2956               	goto	u2915
  6545  015B  0870               	movf	0+(??_RST+0)+0,w
  6546  015C  3AFF               	xorlw	0ffh
  6547  015D  00F1               	movwf	(??_RST+1)+0
  6548  015E  0830               	movf	(0+_pinos_display+010h)^080h,w
  6549  015F  0084               	movwf	fsr0
  6550  0160  0871               	movf	(??_RST+1)+0,w
  6551  0161  1383               	bcf	status, 7	;select IRP bank0
  6552  0162  0580               	andwf	indf,f
  6553  0163  2964               	goto	l5022
  6554                           	
  6555  0164                     l124:	
  6556                           	line	352
  6557                           	
  6558  0164                     l5022:	
  6559                           ;lcd_grafico.c: 352: *pinos_display.pinoRST.porta_pino = *pinos_display.pinoRST.latch_pi
                                 no;
  6560  0164  0830               	movf	(0+_pinos_display+010h)^080h,w
  6561  0165  0084               	movwf	fsr0
  6562  0166  0800               	movf	indf,w
  6563  0167  00F0               	movwf	(??_RST+0)+0
  6564  0168  082F               	movf	(0+_pinos_display+0Fh)^080h,w
  6565  0169  0084               	movwf	fsr0
  6566  016A  0870               	movf	(??_RST+0)+0,w
  6567  016B  0080               	movwf	indf
  6568                           	line	353
  6569                           	
  6570  016C                     l125:	
  6571  016C  0008               	return
  6572                           	opt stack 0
  6573                           GLOBAL	__end_of_RST
  6574  016D                     	__end_of_RST:
  6575 ;; =============== function _RST ends ============
  6576                           
  6577                           	signat	_RST,4216
  6578                           psect	text680,local,class=CODE,delta=2
  6579                           global __ptext680
  6580  0000                     __ptext680:
  6581                           	global	btemp
  6582  007E                     	btemp set 07Eh
  6583                           
  6584                           	DABS	1,126,2	;btemp
  6585                           	global	wtemp0
  6586  007E                     	wtemp0 set btemp


HI-TECH Software PICC Macro Assembler V9.83 build 10920 
Symbol Table                                                                                   Tue Jul 12 02:53:02 2022

                             _E 01A2                   ?_EscreveFrase 0040                               pc 0002  
                ___bmul@product 0072                              E@e 0072                              ?_E 0070  
                            l40 04D7                              l41 04ED                              l50 0329  
                            l35 047F                              l36 04ED                              l52 0341  
                            l60 02FC                              l44 040B                              l37 0488  
                            l53 0343                              l45 0415                              l38 04E2  
                            l46 0471                              l39 049D                              l63 038A  
                            l56 02C9                              l57 02FC                              l66 0082  
                            l58 02DC                              l75 0FBA                              l59 02F1  
                            l92 0038                              l84 0F78                              l69 03FD  
                            l78 0FDC                              l95 005B                              l88 0FEF  
                            l89 0FFF                              l98 01BA                              l99 01CE  
                            _RD 0C60                              _RS 01D7                              _RW 016D  
                            _WR 0C61                              fsr 0004             ___wmul@multiplicand 0072  
                           ??_E 0070                             ?_RS 0070                             ?_RW 0070  
                           l100 01D6                             l110 020B                             l103 0185  
                           l104 0199                             l120 0283                             l200 02BF  
                           l105 01A1                             l113 022B                             l114 023F  
                           l123 0150                             l115 0247                             l124 0164  
                           l108 01EF                             l125 016C                             l109 0203  
                           l118 0267                             l142 0F86                             l119 027B  
                           l143 0F7B                             l144 0F97                             l136 00D6  
                           l145 0F99                             l170 0773                             l139 0015  
                           l171 074F                             l180 073A                             l172 0717  
                           l173 0772                             l181 073F                             l165 06CC  
                           l166 0775                             l182 0744                             l174 071C  
                           l191 07B0                             l183 0749                             l175 0721  
                           l167 06F1                             l184 07EC                             l192 07DF  
                           l168 0774                             l176 0726                             l193 07FF  
                           l185 077A                             l177 072B                             l169 0716  
                           l194 07FF                             l186 07CC                             l178 0730  
                           l187 0785                             l179 0735                             l189 07A8  
                           l197 02AE                             l198 0285                             l199 02BF  
                           _CS1 020C                             _CS2 0248                             _GIE 005F  
                           _RST 0138                   ?_LigarDisplay 0070               DesenharBitmap@cor 0036  
                           fsr0 0004             __end_of_Centralizar 00D7                             indf 0000  
                          ??_RS 0070                            ??_RW 0070                 ?_SelecionarArea 0070  
                          ?_CS1 0070                            ?_CS2 0070                            ?_RST 0070  
                          l1190 069E                            l1191 069F                            l3120 0F45  
                          l1192 069F                            l3121 0F4E                            l2161 0124  
                          l3122 0F58                            l2162 010E                            l2170 0104  
                          l3123 0F5A                            l2163 0137                            l2164 0137  
                          l2180 04F2                            l2181 055B                            l1189 069E  
                          l3126 0086                            l2190 0572                            l2182 04F8  
                          l3127 0090                            l2167 00F1                            l2191 0572  
                          l2183 0505                            l3128 00A5                            l2168 00E0  
                          l2184 0550                            l3129 00AC                            l2169 0104  
                          l2186 0522                            l2179 056B                            l5020 0150  
                          l2188 052A                            l2189 0562                            l5022 0164  
                          l5030 0199                            l5016 0139                            l5024 016E  
                          l5032 01A3                            l5200 03A0                            l5018 013D  
                          l5026 0172                            l5034 01A7                            l5050 01DC  
                          l5210 03D3                            l5202 03AD                            l5028 0185  
                          l5036 01BA                            l5052 01EF                            l5060 020D  
                          l5140 0F4E                            l5220 03FB                            l5212 03DC  
                          l5204 03B3                            l5300 0329                            l5038 01CE  
                          l5054 0203                            l5062 0218                            l5070 0254  
                          l5142 0F50                            l5150 0083                            l5222 03FD  
                          l5214 03E2                            l5206 03C0                            l5230 0032  
                          l5302 0341                            l5310 02C8                            l5048 01D8  
                          l5064 022B                            l5072 0267                            l5080 0F7F  
                          l5144 0F52                            l5136 0F44                            l5160 00AC  
                          l5152 0086                            l5216 03E8                            l5208 03C6  
                          l5224 0017                            l5232 003A                            l5240 0F5C  
                          l5304 0343                            l5320 02DC                            l5312 02C9  
                          l5400 073F                            l5066 023F                            l5074 027B  
                          l5082 0F86                            l5146 0F58                            l5138 0F49  
                          l5154 008A                            l5162 0105                            l5170 0FDE  
                          l5218 03EE                            l5226 0023                            l5234 0046  
                          l5242 0F76                            l5250 0FD1                            l5322 02E6  
                          l5314 02D3                            l5306 02C0                            l5330 0401  
                          l5402 0744                            l5410 0775                            l5068 0249  
                          l5084 0F97                            l5076 0F79                            l5148 0F5A  
                          l5156 0097                            l5164 010E                            l5172 0FE1  
                          l5180 00AE                            l5228 002D                            l5236 0050  
                          l5244 0F78                            l5252 0FD6                            l5260 0FB4  
                          l5324 02EA                            l5316 02D4                            l5308 02C1  
                          l5340 0421                            l5332 0407                            l5420 07A8  
                          l5412 077A                            l5404 0749                            l5500 0594  
                          l5086 0F99                            l5078 0F7B                            l5158 00A5  
                          l5166 00D7                            l5174 0FE7                            l5182 00D6  
                          l5190 0062                            l5238 0055                            l5246 0FBC  
                          l5254 0F9A                            l5270 0487                            l5262 0472  
                          l5318 02DB                            l5326 02F1                            l5350 0465  
                          l5342 042B                            l5334 040B                            l5430 07DF  
                          l5422 07B0                            l5414 0785                            l5406 074E  
                          l5510 05A8                            l5502 0598                            l5168 00E3  
                          l5176 0FED                            l5184 0007                            l5192 006F  
                          l5248 0FC8                            l5256 0FA6                            l5280 049D  
                          l5272 0488                            l5264 0477                            l5328 02F5  
                          l5344 043C                            l5336 0410                            l5360 0373  
                          l5352 0344                            l5432 07E7                            l5424 07BE  
                          l5416 0798                            l5408 074F                            l5440 04F6  
                          l5520 05BC                            l5512 05AC                            l5504 059C  
                          l5178 0FEF                            l5186 0015                            l5194 038B  
                          l5258 0FAF                            l5282 04CA                            l5274 0492  
                          l5290 04E2                            l5266 047E                            l5346 0446  
                          l5338 0415                            l5362 0380                            l5354 035B  
                          l5426 07C7                            l5418 079D                            l5434 07EC  
                          l5370 06B1                            l5450 0512                            l5442 04F8  
                          l5530 05D0                            l5522 05C0                            l5514 05B0  
                          l5506 05A0                            l5188 005C                            l5196 0394  
                          l5292 04E6                            l5284 04D0                            l5276 0495  
                          l5268 0480                            l5348 045B                            l5364 0385  
                          l5356 0361                            l5428 07CC                            l5380 06F7  
                          l5372 06CC                            l5460 053E                            l5452 0517  
                          l5444 04FC                            l5436 04EE                            l5540 0666  
                          l5532 05EA                            l5524 05C4                            l5516 05B4  
                          l5508 05A4                            l5198 039A                            l5278 049C  
                          l5286 04D7                            l5294 0300                            l5358 036D  
                          l5390 0726                            l5382 06FD                            l5374 06D2  
                          l5366 06A5                            l5462 0545                            l5454 0522  
                          l5446 0504                            l5470 055B                            l5438 04F2  
                          l5542 068B                            l5534 060E                            l5526 05C8  
                          l5518 05B8                            l5288 04DB                            l5296 030B  
                          l5392 072B                            l5384 0717                            l5376 06D8  
                          l5368 06AB                            l5472 0562                            l5464 0549  
                          l5456 052A                            l5448 0505                            l5480 02A1  
                          l5544 0698                            l5536 0633                            l5528 05CC  
                          l5298 0310                            l5394 0730                            l5386 071C  
                          l5378 06F1                            l5458 0538                            l5466 0550  
                          l5474 056B                            l5482 02A9                            l5538 0651  
                          l5490 0580                            l5396 0735                            l5388 0721  
                          l5468 0556                            l5484 02AE                            l5476 0284  
                          l5492 0584                            l5398 073A                            l5478 0285  
                          l5494 0588                            l5486 0573                            l5496 058C  
                          l5488 0576                            l5498 0590                            STR_1 1F2E  
                          STR_2 1F2E                            STR_3 1F41                            STR_4 1F41  
                          STR_5 1F5E                            STR_6 1F53                            STR_7 1F53  
                          RS@rs 0072                            RW@rw 0072                            u3010 0218  
                          u3004 01F7                            u3005 01F5                            u3024 0220  
                          u3040 0254                            u3200 008A                            u3025 021E  
                          u3201 0089                            u3034 0233                            u3035 0231  
                          u3300 0486                            u3301 0485                            u3054 025C  
                          u3070 0F96                            u3230 00A4                            u3310 049B  
                          u3055 025A                            u3071 0F95                            u3231 00A3  
                          u3215 0091                            u3311 049A                            u3064 026F  
                          u3240 0136                            u3320 04D6                            u3400 02F0  
                          u3065 026D                            u3225 0098                            u3241 0135  
                          u3321 04D5                            u3401 02EF                            u3250 0103  
                          u3330 04E1                            u3410 02FB                            u3251 0102  
                          u3331 04E0                            u3411 02FA                            u3180 0F49  
                          u3260 0FE7                            u3340 04EC                            u3420 0407  
                          u3500 06F7                            u3181 0F48                            u3245 0132  
                          u3261 0FE6                            u3341 04EB                            u3421 0406  
                          u3501 06F6                            u3190 0F57                            u3270 0FED  
                          u3350 0310                            u3510 06FD                            u3191 0F56  
                          u3255 00FF                            u3271 0FEC                            u3351 030F  
                          u3511 06FC                            u3520 079D                            u3600 02BE  
                          u3521 079C                            u3601 02BD                            u3290 047D  
                          u3450 034E                            u3530 07DE                            u3610 05D8  
                          u3291 047C                            u3435 0418                            u3531 07DD  
                          u3364 0319                            u3380 02C7                            u3540 07FE  
                          u3460 06AB                            u3285 00CF                            u3365 0317  
                          u3381 02C6                            u3445 0430                            u3541 07FD  
                          u3461 06AA                            u3374 0332                            u3390 02DA  
                          u3470 06B1                            u3550 0503                            u3375 0330  
                          u3391 02D9                            u3535 07DA                            u3471 06B0  
                          u3551 0502                            u2904 0145                            u2920 0172  
                          u3480 06D2                            u3560 0517                            u2905 0143  
                          u3545 07FA                            u3481 06D1                            u3561 0516  
                          u2914 0158                            u3490 06D8                            u3570 054F  
                          u2915 0156                            u3627 0112                            u3491 06D7  
                          u3571 054E                            u3580 0561                            u3581 0560  
                          u2934 017A                            u2950 01A7                            u3590 0571  
                          u2935 0178                            u3591 0570                            u2944 018D  
                          u2945 018B                            u2890 013D                            u2964 01AF  
                          u2980 01DC                            u2965 01AD                            u2974 01C2  
                          u2975 01C0                            u2994 01E4                            u2995 01E2  
                          _WREN 0C62              DesenharBitmap@bits 0042                            _main 0573  
                          btemp 007E                            start 0000               ?_EscreveCaractere 0032  
             ___bmul@multiplier 0073                 __end_of_LerDado 0F79              ??_EscreveCaractere 0035  
                ??_EscreveFrase 0045                           ??_CS1 0070                           ??_CS2 0070  
                         ??_RST 0070                           ?_main 0070                           _EEADR 010D  
                ??_LigarDisplay 0078                           _CARRY 0018  JustificarDireita@tamanho_frase 0075  
                         _PORTA 0005                           _PORTB 0006                           _PORTC 0007  
                         _TRISA 0085                           _TRISB 0086                           _TRISC 0087  
                         _Clock 005C          __size_of_LimparDisplay 003D                           _NovoX 02FD  
                         _Ponto 03FE             DesenharBitmap@novoY 003F             DesenharBitmap@ponto 0040  
             TamanhoFrase@frase 0070                           _delay 0105                           pclath 000A  
                         status 0003                           wtemp0 007E                      _EnviarDado 0FBB  
             ??_ClockComLeitura 0078                    __end_of_main 06A2                     _Centralizar 00AD  
                        CS1@cs1 0072                          CS2@cs2 0072                          ??_main 0048  
                        ?_Clock 0070              __size_of_EnderecoX 0023              __size_of_EnderecoY 0023  
                        ?_NovoX 0020                          ?_Ponto 002A                   EscreveFrase@x 0042  
                 EscreveFrase@y 0043                  _DesenharBitmap 04EE                          ?_delay 0070  
           EscreveCaractere@cor 0034                          _EEDATA 010C                          _EECON1 018C  
                        _EECON2 018D                          RST@rst 0072              delayMicroseconds@t 0074  
   __size_of_InicializarDisplay 0047                       ??_LerDado 007A            DesenharBitmap@bitmap 0032  
                 _LimparDisplay 02C0            DesenharBitmap@altura 003D                          NovoX@x 0028  
      Centralizar@tamanho_frase 007C                          Ponto@x 0030                          Ponto@y 002A  
                        ___bmul 0F43                          ___wmul 0083                          delay@t 0076  
        __size_of_InverterCores 007C          __end_of_DesenharBitmap 0573                   ?_TamanhoFrase 0070  
          __end_of_EscreveFrase 02C0                     ?_EnviarDado 0078               _JustificarDireita 0006  
          __end_of_LigarDisplay 0FBB                  ?_LimparDisplay 0070              ?_JustificarDireita 0070  
           ___bmul@multiplicand 0070               __end_of_EnderecoX 0039               __end_of_EnderecoY 005C  
                 __end_of_Clock 0083                  __pcstackCOMMON 0070                   __end_of_NovoX 0344  
                 __end_of_Ponto 0472                   __end_of_delay 0138             ??_JustificarDireita 0074  
                    __end_of_RS 020C                      __end_of_RW 01A2                ??_SelecionarArea 0073  
                ??_TamanhoFrase 0072                 ?_DesenharBitmap 0032                         ??_Clock 0078  
                       ??_NovoX 0022                         ??_Ponto 002C                         ??_delay 0074  
     __end_of_JustificarDireita 0016                   _InverterCores 0472                  LimparDisplay@x 007D  
                LimparDisplay@y 007C                      __pmaintext 0573                         ?___bmul 0070  
                       ?___wmul 0070                      __size_of_E 0035       __size_of_EscreveCaractere 015E  
           __size_of_EnviarDado 0022             delayMicroseconds@us 0070                 _ClockComLeitura 038B  
           _DesenharBitmap$3225 003B                 ??_LimparDisplay 007B                         _LerDado 0F5B  
                ?_InverterCores 0070           DesenharBitmap@mascara 0041           DesenharBitmap@largura 003E  
               __size_of___bmul 0018                 __size_of___wmul 002A                    ?_Centralizar 0070  
           TamanhoFrase@tamanho 0073                    __size_of_CS1 003C                    __size_of_CS2 003C  
                  __size_of_RST 0035                     Ponto@pagina 002F           __size_of_EscreveFrase 003C  
                       delay@ms 0070                  EnviarDado@dado 007A                  EnviarDado@area 0078  
          end_of_initialization 0F3F           __size_of_LigarDisplay 0021      __size_of_JustificarDireita 0010  
          __end_of_TamanhoFrase 0F9A                    _EscreveFrase 0284                    __pstringtext 1D00  
   DesenharBitmap@largura_bytes 0038         __end_of_ClockComLeitura 03FE                    _LigarDisplay 0F9A  
    __end_of_InicializarDisplay 038B                 ??_InverterCores 007D                    ??_EnviarDado 0079  
                    main@latchb 004C                  __end_of___bmul 0F5B               EscreveCaractere@x 0032  
             EscreveCaractere@y 0033                       _EnderecoX 0016                       _EnderecoY 0039  
                __end_of___wmul 00AD                ??_DesenharBitmap 0039        EscreveCaractere@end_alfa 003D  
              _EscreveCaractere 06A2             start_initialization 0F3F              __end_of_EnviarDado 0FDD  
                   __end_of_CS1 0248                     __end_of_CS2 0284                     __end_of_RST 016D  
       DesenharBitmap@altura_px 0037              _SelecionarArea$204 0073                       NovoX@area 0020  
                     _NovoX$157 0026                  LerDado@leitura 007C                        ??___bmul 0071  
                     Ponto@area 0031                        ??___wmul 0074                      ?_EnderecoX 0078  
                    ?_EnderecoY 0078            __size_of_Centralizar 002A                ?_ClockComLeitura 0070  
                 __pcstackBANK0 0020               _delayMicroseconds 00D7                       __end_of_E 01D7  
            ?_delayMicroseconds 0070           __size_of_TamanhoFrase 0021                        ?_LerDado 0070  
                     __pnvBANK1 00A0             ??_delayMicroseconds 0074                 EscreveFrase@cor 0044  
                     __ptext651 0284                       __ptext660 0FBB                       __ptext652 04EE  
                     __ptext661 0F5B                       __ptext653 06A2                       __ptext670 0105  
                     __ptext662 0039                       __ptext654 0344                       __ptext671 0083  
                     __ptext663 0016                       __ptext655 03FE                       __ptext680 0000  
                     __ptext672 0F43                       __ptext664 038B                       __ptext656 02C0  
                     __ptext673 0F79                       __ptext665 005C                       __ptext657 02FD  
                     __ptext674 0248                       __ptext666 0006                       __ptext658 0472  
                     __ptext675 020C                       __ptext667 00AD                       __ptext659 0F9A  
                     __ptext676 01D7                       __ptext668 0FDD                       __ptext677 01A2  
                     __ptext669 00D7                       __ptext678 016D                       __ptext679 0138  
             EscreveFrase@frase 0040       EscreveCaractere@caractere 003F       __end_of_delayMicroseconds 0105  
                 EnderecoX@area 0078                  __size_of_Clock 0027                   EnderecoY@area 0078  
         EscreveCaractere@x_aux 003B           EscreveCaractere@y_aux 003C           EscreveCaractere@ponto 0039  
                  _TamanhoFrase 0F79                  __size_of_NovoX 0047                  __size_of_Ponto 0074  
                __size_of_delay 0033                    NovoX@leitura 0029                     __size_of_RS 0035  
                   __size_of_RW 0035                   _pinos_display 00A0         __size_of_SelecionarArea 0023  
                ___wmul@product 0074           __end_of_LimparDisplay 02FD                     ??_EnderecoX 0079  
                   ??_EnderecoY 0079               InverterCores@area 0023                     __stringbase 1D12  
             ___wmul@multiplier 0070                 DesenharBitmap@x 0034                 DesenharBitmap@y 0035  
                     main@pinos 004D         EscreveCaractere@mascara 003A        __end_of_EscreveCaractere 0800  
              __size_of_LerDado 001E                        NovoX@cor 0021              _InicializarDisplay 0344  
                      Ponto@cor 002B               _bitmap_computador 1E7F             ?_InicializarDisplay 0020  
        ClockComLeitura@leitura 0079      __size_of_delayMicroseconds 002E              SelecionarArea@area 0074  
                      _alfabeto 1D12                  InverterCores@x 0021                  InverterCores@y 0022  
          ??_InicializarDisplay 0034                   __size_of_main 012F           __end_of_InverterCores 04EE  
       InicializarDisplay@pinos 0020            _EscreveCaractere$282 0037                  _SelecionarArea 0FDD  
                     stringcode 1D0A                   ??_Centralizar 0076                     LerDado@area 007B  
                    EnderecoX@x 007A                      EnderecoY@y 007A                        stringtab 1D00  
        __end_of_SelecionarArea 1000         __size_of_DesenharBitmap 0085        __size_of_ClockComLeitura 0073  
          InverterCores@leitura 0020  
